******************************************************************************
                  TI ARM Linker PC v20.2.4                     
******************************************************************************
>> Linked Wed Apr  7 09:44:08 2021

OUTPUT FILE NAME:   <network_terminal_MSP_EXP432P401R_tirtos_ccs.out>
ENTRY POINT SYMBOL: "_c_int00"  address: 0001bc79


MEMORY CONFIGURATION

         name            origin    length      used     unused   attr    fill
----------------------  --------  ---------  --------  --------  ----  --------
  MAIN                  00000000   00040000  000239c4  0001c63c  R  X
  INFO                  00200000   00004000  00000000  00004000  R  X
  SRAM_CODE             01000000   00010000  0000bb27  000044d9  RW X
  SRAM_DATA             20000000   00010000  0000bb27  000044d9  RW  


SEGMENT ALLOCATION MAP

run origin  load origin   length   init length attrs members
----------  ----------- ---------- ----------- ----- -------
00000000    00000000    000239d0   000239d0    r-x
  00000000    00000000    0000003c   0000003c    r-- .resetVecs
  00000040    00000040    0001f5c2   0001f5c2    r-x .text
  0001f604    0001f604    00003656   00003656    r-- .const
  00022c60    00022c60    00000d70   00000d70    r-- .cinit
20000140    20000140    00008000   00000000    r--
  20000140    20000140    00008000   00000000    r-- .priheap
20008200    20008200    000035e7   00000000    rw-
  20008200    20008200    00001e84   00000000    rw- .bss
  2000a084    2000a084    00001763   00000000    rw- .data
2000fc00    2000fc00    00000400   00000000    rw-
  2000fc00    2000fc00    00000400   00000000    rw- .stack


SECTION ALLOCATION MAP

 output                                  attributes/
section   page    origin      length       input sections
--------  ----  ----------  ----------   ----------------
.text      0    00000040    0001f5c2     
                  00000040    00001268     transceiver_cmd.obj (.text:TxTask)
                  000012a8    00000ca0     cmd_parser.obj (.text:ParseCreateFilterCmd)
                  00001f48    00000a4e     rtsv7M4_T_le_v4SPD16_eabi.lib : _printfi.c.obj (.text:__TI_printfi)
                  00002996    00000002     ti_drivers_config.obj (.text:Board_initHook)
                  00002998    000008e8     simplelink.a : driver.obj (.text:_SlDrvMsgRead)
                  00003280    00000770     network_terminal.obj (.text:SimpleLinkWlanEventHandler)
                  000039f0    00000670     socket_cmd.obj (.text:drawRxHist)
                  00004060    00000640     cmd_parser.obj (.text:ParseStartApCmd)
                  000046a0    00000578     cmd_parser.obj (.text:ParseRecvCmd)
                  00004c18    00000508     socket_cmd.obj (.text:TCPServer)
                  00005120    00000504     transceiver_cmd.obj (.text:RxTask)
                  00005624    000004f0     cmd_parser.obj (.text:ParseSendCmd)
                  00005b14    000004bc     simplelink.a : sl_socket.obj (.text:_SlSocketHandleAsync_Select)
                  00005fd0    00000484     cmd_parser.obj (.text:ParseConnectCmd)
                  00006454    00000474     socket_cmd.obj (.text:UDPServer)
                  000068c8    0000046c     netapp_cmd.obj (.text:mDNSQueryCallback)
                  00006d34    00000440     cmd_parser.obj (.text:ParseProfileCmd)
                  00007174    00000422     socket_cmd.obj (.text:TCPClient)
                  00007596    00000002     simplelink.a : cc_pal.obj (.text:NwpMaskInterrupt)
                  00007598    000003f4     cmd_parser.obj (.text:ParsePingCmd)
                  0000798c    000003f3     socket_cmd.obj (.text:UDPClient)
                  00007d7f    00000001     --HOLE-- [fill = 0]
                  00007d80    000003e8     wlan_cmd.obj (.text:cmdWlanConnectCallback)
                  00008168    000003ac     wlan_cmd.obj (.text:cmdWlanStartApCallback)
                  00008514    0000039c     wlan_cmd.obj (.text:printExtScanResults)
                  000088b0    00000384     simplelink.a : driver.obj (.text:_SlDrvMsgWrite)
                  00008c34    0000032c     radio_tool.obj (.text:radioTool_TxStart)
                  00008f60    00000320     wlan_cmd.obj (.text:cmdWlanStopApCallback)
                  00009280    00000320     wlan_cmd.obj (.text:setP2Pparams)
                  000095a0    00000310     network_terminal.obj (.text:DisplayAppBanner)
                  000098b0    0000030c     simplelink.a : driver.obj (.text:_SlDrvReleasePoolObj)
                  00009bbc    000002fc     wlan_cmd.obj (.text:cmdEnableWoWLANCallback)
                  00009eb8    000002f8     drivers_msp432p401x.aem4f : PowerMSP432.oem4f (.text:Power_sleep)
                  0000a1b0    000002dc     network_terminal.obj (.text:SimpleLinkNetAppEventHandler)
                  0000a48c    000002d8     simplelink.a : driver.obj (.text:_SlDrvRxHdrRead)
                  0000a764    000002d0     drivers_msp432p401x.aem4f : UARTMSP432.oem4f (.text:UARTMSP432_open)
                  0000aa34    000002d0     simplelink.a : driver.obj (.text:_SlDrvWaitForPoolObj)
                  0000ad04    000002c4     cmd_parser.obj (.text:ParsemDNSAdvertiseCmd)
                  0000afc8    000002bc     wlan_cmd.obj (.text:p2pConnect)
                  0000b284    000002bc     wlan_cmd.obj (.text:printScanResults)
                  0000b540    000002b8     netapp_cmd.obj (.text:mDNSAdvertiseCallback)
                  0000b7f8    000002b0     simplelink.a : wlan.obj (.text:sl_WlanProfileAdd)
                  0000baa8    000002a4                  : wlanconfig.obj (.text:sl_WifiConfig)
                  0000bd4c    000002a0     rtsv7M4_T_le_v4SPD16_eabi.lib : mktime.c.obj (.text:__mktime32)
                  0000bfec    0000028c     drivers_msp432p401x.aem4f : SPIMSP432DMA.oem4f (.text:SPIMSP432DMA_open)
                  0000c278    0000028a     msp432p4xx_driverlib.lib : pcm.o (.text:__PCM_setPowerStateAdvanced)
                  0000c502    00000002     simplelink.a : cc_pal.obj (.text:NwpUnMaskInterrupt)
                  0000c504    00000288     drivers_msp432p401x.aem4f : PowerMSP432.oem4f (.text:initPerfControl)
                  0000c78c    0000027c     simplelink.a : wlan.obj (.text:sl_WlanConnect)
                  0000ca08    00000278     wlan_cmd.obj (.text:cmdConnectedStationsCallback)
                  0000cc80    00000274     wlan_cmd.obj (.text:cmdSetPolicyCallback)
                  0000cef4    00000270     rtsv7M4_T_le_v4SPD16_eabi.lib : _printfi.c.obj (.text:_pconv_a)
                  0000d164    00000260     cmd_parser.obj (.text:ParseSetPolicyCmd)
                  0000d3c4    0000025c     simplelink.a : driver.obj (.text:_SlDrvDataReadOp)
                  0000d620    0000025c     wlan_cmd.obj (.text:cmdTriggeredRoamingEnablecallback)
                  0000d87c    00000250     cmd_parser.obj (.text:ParseEnableWoWLANCmd)
                  0000dacc    0000024c     netapp_cmd.obj (.text:cmdPingCallback)
                  0000dd18    00000244     wlan_cmd.obj (.text:cmdSoftRoamingEnablecallback)
                  0000df5c    00000234     network_terminal.obj (.text:mainThread)
                  0000e190    00000230     wlan_cmd.obj (.text:cmdP2PModecallback)
                  0000e3c0    00000228     network_terminal.obj (.text:ipv6AddressParse)
                  0000e5e8    00000218     simplelink.a : driver.obj (.text:_SlDrvDataWriteOp)
                  0000e800    00000200     network_terminal.obj (.text:initAppVariables)
                  0000ea00    000001f4     simplelink.a : driver.obj (.text:_SlDrvMsgReadCmdCtx)
                  0000ebf4    000001f4     wlan_cmd.obj (.text:setStaticIPConfig)
                  0000ede8    000001f2     simplelink.a : netapp.obj (.text:_SlNetAppEventHandler)
                  0000efda    00000002     dpl_msp432p401x.aem4f : PowerMSP432_tirtos.oem4f (.text:PowerMSP432_initPolicy)
                  0000efdc    000001e7     network_terminal.obj (.text:SimpleLinkFatalErrorEventHandler)
                  0000f1c3    00000001     --HOLE-- [fill = 0]
                  0000f1c4    000001dc     simplelink.a : device.obj (.text:sl_Stop)
                  0000f3a0    000001d8     wlan_cmd.obj (.text:cmdAddProfilecallback)
                  0000f578    000001d0     rtsv7M4_T_le_v4SPD16_eabi.lib : _printfi.c.obj (.text:_pconv_g)
                  0000f748    000001c8     simplelink.a : netapp.obj (.text:sl_NetAppPing)
                  0000f910    000001b8     transceiver_cmd.obj (.text:showTxMenu)
                  0000fac8    000001b6     rtsv7M4_T_le_v4SPD16_eabi.lib : fd_add_t2.asm.obj (.text)
                  0000fc7e    00000002     drivers_msp432p401x.aem4f : UARTMSP432.oem4f (.text:UARTMSP432_init)
                  0000fc80    000001b2     wlan_cmd.obj (.text:cmdGetProfilecallback)
                  0000fe32    00000002     rtsv7M4_T_le_v4SPD16_eabi.lib : _lock.c.obj (.text:_nop)
                  0000fe34    000001ac     wlan_cmd.obj (.text:cmdP2PStopcallback)
                  0000ffe0    000001a8     simplelink.a : sl_socket.obj (.text:sl_Accept)
                  00010188    000001a5     socket_cmd.obj (.text:cmdRecvCallback)
                  0001032d    00000001     --HOLE-- [fill = 0]
                  0001032e    00000002     rtsv7M4_T_le_v4SPD16_eabi.lib : div0.asm.obj (.text)
                  00010330    000001a4     simplelink.a : driver.obj (.text:_SlDrvDriverCBInit)
                  000104d4    000001a4                  : driver.obj (.text:_SlDrvReleaseAllActivePendingPoolObj)
                  00010678    0000019c     cmd_parser.obj (.text:ParsemDNSQueryCmd)
                  00010814    00000184     simplelink.a : driver.obj (.text:_SlDrvFindAndSetActiveObj)
                  00010998    00000178                  : sl_socket.obj (.text:sl_Connect)
                  00010b10    00000170     drivers_msp432p401x.aem4f : GPIOMSP432.oem4f (.text:GPIO_setConfig)
                  00010c80    00000170     transceiver_cmd.obj (.text:cmdTranceiverModecallback)
                  00010df0    00000170     simplelink.a : netapp.obj (.text:sl_NetAppDnsGetHostByName)
                  00010f60    0000016c     cmd_parser.obj (.text:ParseCountycodeCmd)
                  000110cc    00000160     wlan_cmd.obj (.text:cmdAntSelectionEnablecallback)
                  0001122c    0000015c     msp432p4xx_driverlib.lib : pcm.o (.text:__PCM_setPowerModeAdvanced)
                  00011388    00000158     wlan_cmd.obj (.text:cmdCoexEnablecallback)
                  000114e0    00000158     wlan_cmd.obj (.text:printFrameSubTyps)
                  00011638    00000154     simplelink.a : sl_socket.obj (.text:sl_RecvFrom)
                  0001178c    0000014c     wlan_cmd.obj (.text:cmdScanCallback)
                  000118d8    00000148     simplelink.a : sl_socket.obj (.text:_SlDrvGetNextTimeoutValue)
                  00011a20    00000148     sysbios.aem4f : BIOS.obj (.text:ti_sysbios_family_arm_msp432_Seconds_set__E)
                  00011b68    00000140     simplelink.a : driver.obj (.text:_SlDrvMsgReadSpawnCtx)
                  00011ca8    0000013c     cmd_parser.obj (.text:ParseTriggeredRoamingEnableCmd)
                  00011de4    0000013c     rtsv7M4_T_le_v4SPD16_eabi.lib : _printfi.c.obj (.text:_pconv_e)
                  00011f20    00000138     simplelink.a : driver.obj (.text:_SlSpawnMsgListInsert)
                  00012058    00000138     wlan_cmd.obj (.text:cmdAntSelectionDisablecallback)
                  00012190    00000138     transceiver_cmd.obj (.text:showMenu)
                  000122c8    00000136     rtsv7M4_T_le_v4SPD16_eabi.lib : fd_div_t2.asm.obj (.text)
                  000123fe    00000002     release_pem4f.oem4f (.text:ti_sysbios_BIOS_nullFunc__I)
                  00012400    00000134     transceiver_cmd.obj (.text:showPHYConfMenu)
                  00012534    00000130     wlan_cmd.obj (.text:cmdCoexDisablecallback)
                  00012664    00000130     drivers_msp432p401x.aem4f : UDMAMSP432.oem4f (.text:setupInterrupt)
                  00012794    00000130     rtsv7M4_T_le_v4SPD16_eabi.lib : strtol.c.obj (.text:strtol)
                  000128c4    00000004     msp432p4xx_driverlib.lib : cpu.o (.text:CPU_wfi)
                  000128c8    00000130     sysbios.aem4f : BIOS.obj (.text:ti_sysbios_knl_Semaphore_pend__E)
                  000129f8    0000012c     drivers_msp432p401x.aem4f : SPIMSP432DMA.oem4f (.text:SPIMSP432DMA_transfer)
                  00012b24    00000128     cmd_parser.obj (.text:ParseScanCmd)
                  00012c4c    00000128     simplelink.a : driver.obj (.text:_SlDrvClassifyRxMsg)
                  00012d74    00000124     rtsv7M4_T_le_v4SPD16_eabi.lib : _printfi.c.obj (.text:fcvt)
                  00012e98    00000120     simplelink.a : driver.obj (.text:_SlDrvAsyncEventGenericHandler)
                  00012fb8    0000011c     msp432p4xx_driverlib.lib : uart.o (.text:UART_initModule)
                  000130d4    0000011c     transceiver_cmd.obj (.text:showModCodeMenu)
                  000131f0    0000011c     simplelink.a : device.obj (.text:sl_Start)
                  0001330c    00000118                  : netapp.obj (.text:_SlNetAppHandleAsync_DnsGetHostByService)
                  00013424    00000118                  : wlan.obj (.text:sl_WlanProfileGet)
                  0001353c    00000117     wlan_cmd.obj (.text:cmdCreateFilterCallback)
                  00013653    00000001     --HOLE-- [fill = 0]
                  00013654    00000114     wlan_cmd.obj (.text:printCreateFilterUsage)
                  00013768    00000110     rtsv7M4_T_le_v4SPD16_eabi.lib : s_scalbn.c.obj (.text:scalbn)
                  00013878    00000110     simplelink.a : netapp.obj (.text:sl_NetAppDnsGetHostByService)
                  00013988    00000110     rtsv7M4_T_le_v4SPD16_eabi.lib : strtoul.c.obj (.text:strtoul)
                  00013a98    00000108     msp432p4xx_driverlib.lib : pcm.o (.text:__PCM_setCoreVoltageLevelAdvanced)
                  00013ba0    00000108     sysbios.aem4f : BIOS.obj (.text:ti_sysbios_knl_Task_postInit__I)
                  00013ca8    00000108                   : BIOS.obj (.text:xdc_runtime_Startup_startMods__I)
                  00013db0    00000104     drivers_msp432p401x.aem4f : SPIMSP432DMA.oem4f (.text:SPIMSP432DMA_transferCancel)
                  00013eb4    00000104     simplelink.a : device.obj (.text:_SlDeviceEventHandler)
                  00013fb8    00000104                  : driver.obj (.text:_SlDrvCmdOp)
                  000140bc    00000004     dpl_msp432p401x.aem4f : ClockP_tirtos.oem4f (.text:ClockP_setTimeout)
                  000140c0    00000104     sysbios.aem4f : BIOS.obj (.text:ti_sysbios_knl_Task_Instance_finalize__E)
                  000141c4    00000100     cmd_parser.obj (.text:ParseSoftRoamingEnableCmd)
                  000142c4    00000100     simplelink.a : driver.obj (.text:_SlDrvObjGlobalLockWaitForever)
                  000143c4    00000100     network_terminal.obj (.text:cmdHelpCallback)
                  000144c4    000000fc     network_terminal.obj (.text:cmd_prompt)
                  000145c0    000000fc     drivers_msp432p401x.aem4f : SPIMSP432DMA.oem4f (.text:configDMA)
                  000146bc    000000fc     rtsv7M4_T_le_v4SPD16_eabi.lib : fd_mul_t2.asm.obj (.text)
                  000147b8    000000f8     simplelink.a : sl_socket.obj (.text:sl_Close)
                  000148b0    000000f8     sysbios.aem4f : BIOS.obj (.text:ti_sysbios_family_arm_msp432_init_Boot_configureClocksHigh)
                  000149a8    000000f4     netapp_cmd.obj (.text:SimpleLinkPingReport)
                  00014a9c    000000f4     socket_cmd.obj (.text:cmdSendCallback)
                  00014b90    000000f4     simplelink.a : sl_socket.obj (.text:sl_SendTo)
                  00014c84    000000f0     msp432p4xx_driverlib.lib : dma.o (.text:DMA_setChannelTransfer)
                  00014d74    000000f0     cmd_parser.obj (.text:ParsegetProfileCmd)
                  00014e64    00000004     dpl_msp432p401x.aem4f : ClockP_tirtos.oem4f (.text:ClockP_start)
                  00014e68    000000f0     sysbios.aem4f : BIOS.obj (.text:pthread_create)
                  00014f58    000000f0                   : m3_Hwi_asm.obj (.text:ti_sysbios_family_arm_m3_Hwi_dispatch__I)
                  00015048    000000ec     wlan_cmd.obj (.text:cmdCountrycodecallback)
                  00015134    000000e4     msp432p4xx_driverlib.lib : cs.o (.text:CS_startHFXTWithTimeout)
                  00015218    000000e0                              : cs.o (.text:CS_startLFXTWithTimeout)
                  000152f8    000000e0     sysbios.aem4f : BIOS.obj (.text:clock_gettime)
                  000153d8    000000e0                   : BIOS.obj (.text:ti_sysbios_knl_Task_Instance_init__E)
                  000154b8    000000de     network_terminal.obj (.text:hexbyteStrtoASCII)
                  00015596    00000002     --HOLE-- [fill = 0]
                  00015598    000000dc     drivers_msp432p401x.aem4f : UARTMSP432.oem4f (.text:UARTMSP432_readPolling)
                  00015674    000000dc                               : UDMAMSP432.oem4f (.text:UDMAMSP432_close)
                  00015750    000000dc     msp432p4xx_driverlib.lib : cs.o (.text:_CSGetHFXTFrequency)
                  0001582c    000000d8     uart_term.obj (.text:GetCmd)
                  00015904    000000d8     simplelink.a : device.obj (.text:_SlDeviceHandleAsync_InitComplete)
                  000159dc    000000d8                  : driver.obj (.text:_SlDrvWaitForInternalAsyncEvent)
                  00015ab4    000000d8                  : netapp.obj (.text:_SlNetAppHandleAsync_NetAppReceive)
                  00015b8c    000000d4     socket_cmd.obj (.text:printRecvUsage)
                  00015c60    000000d0     simplelink.a : driver.obj (.text:_SlDrvDriverCBDeinit)
                  00015d30    000000d0                  : driver.obj (.text:_SlDrvRemoveFromList)
                  00015e00    000000d0                  : netapp.obj (.text:_SlNetAppMDNSRegisterUnregisterService)
                  00015ed0    000000d0                  : netapp.obj (.text:sl_NetAppGetServiceList)
                  00015fa0    000000d0     sysbios.aem4f : BIOS.obj (.text:ti_sysbios_heaps_HeapMem_alloc__E)
                  00016070    000000ce     cmd_parser.obj (.text:mDNScreateServiceName)
                  0001613e    00000002     --HOLE-- [fill = 0]
                  00016140    000000cc     wlan_cmd.obj (.text:cmdDeleteFilterCallback)
                  0001620c    000000cc     wlan_cmd.obj (.text:cmdDisableFilterCallback)
                  000162d8    000000cc     wlan_cmd.obj (.text:cmdEnableFilterCallback)
                  000163a4    000000ca     drivers_msp432p401x.aem4f : UARTMSP432.oem4f (.text:UARTMSP432_hwiIntFxn)
                  0001646e    00000002     --HOLE-- [fill = 0]
                  00016470    000000c4     cmd_parser.obj (.text:ParseCmd)
                  00016534    00000004     dpl_msp432p401x.aem4f : ClockP_tirtos.oem4f (.text:ClockP_stop)
                  00016538    000000c4     sysbios.aem4f : BIOS.obj (.text:ti_sysbios_knl_Task_sleep__E)
                  000165fc    000000c0     network_terminal.obj (.text:macAddressParse)
                  000166bc    000000c0     simplelink.a : netcfg.obj (.text:sl_NetCfgGet)
                  0001677c    000000bc     wlan_cmd.obj (.text:CheckSubFrameType)
                  00016838    000000bc     simplelink.a : netapp.obj (.text:_SlNetAppSendResponse)
                  000168f4    000000bc     socket_cmd.obj (.text:printSendUsage)
                  000169b0    000000bc     simplelink.a : sl_socket.obj (.text:sl_Send)
                  00016a6c    000000bc                  : wlan.obj (.text:sl_WlanProvisioning)
                  00016b28    000000b8                  : netapp.obj (.text:_SlNetAppHandleAsync_DnsGetHostByName)
                  00016be0    000000b8                  : netapp.obj (.text:_SlNetAppHandleAsync_PingResponse)
                  00016c98    000000b8     drivers_msp432p401x.aem4f : UARTMSP432.oem4f (.text:initHw)
                  00016d50    000000b8                               : UARTMSP432.oem4f (.text:readTaskCallback)
                  00016e08    000000b8     network_terminal.obj (.text:showAvailableCmd)
                  00016ec0    000000b8     simplelink.a : device.obj (.text:sl_DeviceGet)
                  00016f78    000000b8                  : wlan.obj (.text:sl_WlanGet)
                  00017030    000000b8     sysbios.aem4f : BIOS.obj (.text:ti_sysbios_family_arm_m3_Hwi_Instance_init__E)
                  000170e8    000000b4     network_terminal.obj (.text:PrintIPAddress)
                  0001719c    000000b4     drivers_msp432p401x.aem4f : UARTMSP432.oem4f (.text:UARTMSP432_control)
                  00017250    000000b4                               : UARTMSP432.oem4f (.text:UARTMSP432_writePolling)
                  00017304    000000b4     simplelink.a : driver.obj (.text:_SlDrvHandleFatalError)
                  000173b8    000000b4                  : netutil.obj (.text:_SlNetUtilHandleAsync_Cmd)
                  0001746c    000000b4     radio_tool.obj (.text:radioTool_Open)
                  00017520    000000b4     simplelink.a : cc_pal.obj (.text:spi_Read)
                  000175d4    000000b4                  : cc_pal.obj (.text:spi_Write)
                  00017688    000000b1     rtsv7M4_T_le_v4SPD16_eabi.lib : _printfi.c.obj (.text:_ltostr)
                  00017739    00000001     --HOLE-- [fill = 0]
                  0001773a    000000b0     msp432p4xx_driverlib.lib : spi.o (.text:SPI_initMaster)
                  000177ea    00000002     --HOLE-- [fill = 0]
                  000177ec    000000b0     wlan_cmd.obj (.text:printWlanConnectUsage)
                  0001789c    000000b0     wlan_cmd.obj (.text:printWlanStartApUsage)
                  0001794c    000000b0     simplelink.a : wlan.obj (.text:sl_WlanRxStatGet)
                  000179fc    000000ac     drivers_msp432p401x.aem4f : GPIOMSP432.oem4f (.text:GPIO_init)
                  00017aa8    000000ac     simplelink.a : sl_socket.obj (.text:_SlSocketHandleAsync_Close)
                  00017b54    000000ac                  : sl_socket.obj (.text:_SlSocketHandleAsync_Connect)
                  00017c00    000000ac     wlan_cmd.obj (.text:sendConnectionReq)
                  00017cac    00000004     dpl_msp432p401x.aem4f : HwiP_tirtos.oem4f (.text:HwiP_clearInterrupt)
                  00017cb0    000000aa     sysbios.aem4f : BIOS.obj (.text:xdc_runtime_Core_createObject__I)
                  00017d5a    00000002     --HOLE-- [fill = 0]
                  00017d5c    000000a9     wlan_cmd.obj (.text:cmdAPTransitionDisablecallback)
                  00017e05    00000003     --HOLE-- [fill = 0]
                  00017e08    000000a9     wlan_cmd.obj (.text:cmdTriggeredRoamingDisablecallback)
                  00017eb1    00000001     --HOLE-- [fill = 0]
                  00017eb2    000000a8     drivers_msp432p401x.aem4f : UARTMSP432.oem4f (.text:UARTMSP432_write)
                  00017f5a    00000002     --HOLE-- [fill = 0]
                  00017f5c    000000a8     netapp_cmd.obj (.text:printmDNSAdvertiseUsage)
                  00018004    000000a8     drivers_msp432p401x.aem4f : UARTMSP432.oem4f (.text:readTaskBlocking)
                  000180ac    00000004     dpl_msp432p401x.aem4f : HwiP_tirtos.oem4f (.text:HwiP_disable)
                  000180b0    000000a8     sysbios.aem4f : BIOS.obj (.text:ti_sysbios_family_arm_msp432_Timer_periodicStub__E)
                  00018158    000000a6     uart_term.obj (.text:Report)
                  000181fe    000000a6     simplelink.a : driver.obj (.text:_SlDrvIsTimeoutExpired)
                  000182a4    000000a4     wlan_cmd.obj (.text:printAddProfileUsage)
                  00018348    000000a4     wlan_cmd.obj (.text:printSetPolicyUsage)
                  000183ec    000000a4     simplelink.a : sl_socket.obj (.text:sl_Bind)
                  00018490    000000a4                  : netapp.obj (.text:sl_NetAppGet)
                  00018534    00000004     dpl_msp432p401x.aem4f : HwiP_tirtos.oem4f (.text:HwiP_disableInterrupt)
                  00018538    000000a4     sysbios.aem4f : BIOS.obj (.text:ti_sysbios_knl_Task_setPri__E)
                  000185dc    000000a1     wlan_cmd.obj (.text:cmdAPTransitionEnablecallback)
                  0001867d    00000003     --HOLE-- [fill = 0]
                  00018680    000000a1     wlan_cmd.obj (.text:cmdWlanDisconnectCallback)
                  00018721    00000003     --HOLE-- [fill = 0]
                  00018724    000000a0     simplelink.a : driver.obj (.text:_SlSpawnMsgListProcess)
                  000187c4    000000a0     auto_init.aem4f : auto_init.oem4f (.text)
                  00018864    000000a0     drivers_msp432p401x.aem4f : UARTMSP432.oem4f (.text:readIsrTextCallback)
                  00018904    0000009c                               : PowerMSP432.oem4f (.text:Power_init)
                  000189a0    0000009c     rtsv7M4_T_le_v4SPD16_eabi.lib : memcpy_t2.asm.obj (.text)
                  00018a3c    00000098     netapp_cmd.obj (.text:printPingUsage)
                  00018ad4    00000096     wlan_cmd.obj (.text:cmdSoftRoamingDisablecallback)
                  00018b6a    00000002     --HOLE-- [fill = 0]
                  00018b6c    00000096     network_terminal.obj (.text:ipv4AddressParse)
                  00018c02    00000096     rtsv7M4_T_le_v4SPD16_eabi.lib : ull_div_t2.asm.obj (.text)
                  00018c98    00000094     simplelink.a : cc_pal.obj (.text:Semaphore_pend_handle)
                  00018d2c    00000094     drivers_msp432p401x.aem4f : UDMAMSP432.oem4f (.text:UDMAMSP432_init)
                  00018dc0    00000094                               : UDMAMSP432.oem4f (.text:UDMAMSP432_open)
                  00018e54    00000004     dpl_msp432p401x.aem4f : HwiP_tirtos.oem4f (.text:HwiP_enableInterrupt)
                  00018e58    00000094     sysbios.aem4f : BIOS.obj (.text:_pthread_removeThreadKeys)
                  00018eec    00000094     simplelink.a : wlan.obj (.text:sl_WlanGetExtNetworkList)
                  00018f80    00000094                  : wlan.obj (.text:sl_WlanGetNetworkList)
                  00019014    00000004     drivers_msp432p401x.aem4f : SPIMSP432DMA.oem4f (.text:SPIMSP432DMA_init)
                  00019018    00000094     sysbios.aem4f : BIOS.obj (.text:ti_sysbios_family_arm_m3_Hwi_initNVIC__E)
                  000190ac    00000004     dpl_msp432p401x.aem4f : SemaphoreP_tirtos.oem4f (.text:SemaphoreP_post)
                  000190b0    00000094     sysbios.aem4f : BIOS.obj (.text:ti_sysbios_knl_Task_exit__E)
                  00019144    00000092     drivers_msp432p401x.aem4f : UARTMSP432.oem4f (.text:UARTMSP432_close)
                  000191d6    00000092                               : UARTMSP432.oem4f (.text:writeData)
                  00019268    00000090     simplelink.a : device.obj (.text:_SlDeviceHandleAsync_Stop)
                  000192f8    00000090                  : sl_socket.obj (.text:_SlSocketHandleAsync_Accept)
                  00019388    00000090     netapp_cmd.obj (.text:printmDNSQueryUsage)
                  00019418    00000090     radio_tool.obj (.text:radioTool_RxStart)
                  000194a8    00000090     simplelink.a : wlan.obj (.text:sl_WlanRxFilterAdd)
                  00019538    00000090     sysbios.aem4f : BIOS.obj (.text:ti_sysbios_knl_Task_Module_startup__E)
                  000195c8    0000008c     simplelink.a : driver.obj (.text:_SlDrvDriverIsApiAllowed)
                  00019654    0000008c                  : driver.obj (.text:_SlDrvProtectAsyncRespSetting)
                  000196e0    0000008c     wlan_cmd.obj (.text:printEnableWoWLANUsage)
                  0001976c    0000008c     drivers_msp432p401x.aem4f : UARTMSP432.oem4f (.text:readIsrTextBlocking)
                  000197f8    0000008c     simplelink.a : sl_socket.obj (.text:sl_Recv)
                  00019884    0000008c                  : wlan.obj (.text:sl_WlanRxStatStart)
                  00019910    0000008c                  : wlan.obj (.text:sl_WlanRxStatStop)
                  0001999c    0000008c     sysbios.aem4f : m3_TaskSupport_asm.obj (.text:ti_sysbios_family_arm_m3_TaskSupport_buildTaskStack)
                  00019a28    0000008c                   : BIOS.obj (.text:xdc_runtime_Memory_alloc__E)
                  00019ab4    00000086     rtsv7M4_T_le_v4SPD16_eabi.lib : fd_cmp_t2.asm.obj (.text:__aeabi_cdcmple)
                  00019b3a    00000086                                   : fd_cmp_t2.asm.obj (.text:__aeabi_cdrcmple)
                  00019bc0    00000086     drivers_msp432p401x.aem4f : SPIMSP432DMA.oem4f (.text:initHw)
                  00019c46    00000002     --HOLE-- [fill = 0]
                  00019c48    00000086     sysbios.aem4f : BIOS.obj (.text:xdc_runtime_Core_constructObject__I)
                  00019cce    00000002     --HOLE-- [fill = 0]
                  00019cd0    00000084     msp432p4xx_driverlib.lib : pcm.o (.text:PCM_gotoLPM3)
                  00019d54    00000084     wlan_cmd.obj (.text:printScanUsage)
                  00019dd8    00000084     drivers_msp432p401x.aem4f : PowerMSP432.oem4f (.text:restartHFXT)
                  00019e5c    00000084     network_terminal.obj (.text:sem_wait_timeout)
                  00019ee0    00000084     simplelink.a : netapp.obj (.text:sl_NetAppSet)
                  00019f64    00000084                  : netcfg.obj (.text:sl_NetCfgSet)
                  00019fe8    00000084                  : sl_socket.obj (.text:sl_SetSockOpt)
                  0001a06c    00000084                  : wlan.obj (.text:sl_WlanSet)
                  0001a0f0    00000084     sysbios.aem4f : BIOS.obj (.text:ti_sysbios_family_arm_m3_Hwi_postInit__I)
                  0001a174    00000004     release_pem4f.oem4f (.text:ti_sysbios_BIOS_RtsGateProxy_enter__E)
                  0001a178    00000084     sysbios.aem4f : BIOS.obj (.text:ti_sysbios_heaps_HeapMem_free__E)
                  0001a1fc    00000080     simplelink.a : device.obj (.text:sl_DeviceSet)
                  0001a27c    00000004     release_pem4f.oem4f (.text:ti_sysbios_BIOS_RtsGateProxy_leave__E)
                  0001a280    00000080     sysbios.aem4f : BIOS.obj (.text:ti_sysbios_knl_Clock_workFunc__E)
                  0001a300    0000007e     cmd_parser.obj (.text:FreeConnectCmd)
                  0001a37e    00000002     --HOLE-- [fill = 0]
                  0001a380    0000007c     sysbios.aem4f : BIOS.obj (.text:_pthread_abstime2ticks)
                  0001a3fc    0000007c     simplelink.a : wlan.obj (.text:sl_WlanPolicySet)
                  0001a478    0000007a     rtsv7M4_T_le_v4SPD16_eabi.lib : memset_t2.asm.obj (.text)
                  0001a4f2    00000002     --HOLE-- [fill = 0]
                  0001a4f4    00000078     radio_tool.obj (.text:radioTool_TxStop)
                  0001a56c    00000078     simplelink.a : sl_socket.obj (.text:sl_Socket)
                  0001a5e4    00000074     wlan_cmd.obj (.text:printCountrycodeeUsage)
                  0001a658    00000074     wlan_cmd.obj (.text:printSoftRoamingEnableUsage)
                  0001a6cc    00000074     wlan_cmd.obj (.text:printTriggeredRoamingEnableUsage)
                  0001a740    00000070     drivers_msp432p401x.aem4f : UARTMSP432.oem4f (.text:UARTMSP432_writeCancel)
                  0001a7b0    00000070     simplelink.a : driver.obj (.text:_SlDrvCmdSend_noLock)
                  0001a820    00000070     transceiver_cmd.obj (.text:showCCAThreshHoldMenu)
                  0001a890    00000070     transceiver_cmd.obj (.text:showRxMenu)
                  0001a900    00000070     sysbios.aem4f : BIOS.obj (.text:ti_sysbios_heaps_HeapMem_initPrimary__I)
                  0001a970    0000006e     rtsv7M4_T_le_v4SPD16_eabi.lib : _printfi.c.obj (.text:_mcpy)
                  0001a9de    0000006e                                   : ll_div_t2.asm.obj (.text)
                  0001aa4c    0000006c     simplelink.a : cc_pal.obj (.text:NwpRegisterInterruptHandler)
                  0001aab8    0000006c                  : device.obj (.text:_SlDeviceHandleResetRequestInternally)
                  0001ab24    0000006c                  : netapp.obj (.text:_SlNetAppSendTokenValue)
                  0001ab90    0000006c     sysbios.aem4f : BIOS.obj (.text:ti_sysbios_family_arm_msp432_Seconds_get__E)
                  0001abfc    00000004     release_pem4f.oem4f (.text:ti_sysbios_family_arm_m3_Hwi_delete)
                  0001ac00    0000006c     sysbios.aem4f : BIOS.obj (.text:ti_sysbios_knl_Swi_restoreHwi__E)
                  0001ac6c    0000006a     cmd_parser.obj (.text:FreeProfileCmd)
                  0001acd6    00000002     --HOLE-- [fill = 0]
                  0001acd8    00000068     drivers_msp432p401x.aem4f : GPIOMSP432.oem4f (.text:GPIO_hwiIntFxn)
                  0001ad40    00000068                               : PowerMSP432.oem4f (.text:PowerMSP432_getFreqs)
                  0001ada8    00000068     simplelink.a : driver.obj (.text:_SlSpawnMsgListGetCount)
                  0001ae10    00000068     rtsv7M4_T_le_v4SPD16_eabi.lib : copy_decompress_lzss.c.obj (.text:decompress:lzss:__TI_decompress_lzss)
                  0001ae78    00000068     main_tirtos.obj (.text:main)
                  0001aee0    00000068     wlan_cmd.obj (.text:printAntSelectionEnableUsage)
                  0001af48    00000068     wlan_cmd.obj (.text:printCoexEnableUsage)
                  0001afb0    00000068     wlan_cmd.obj (.text:printGetProfileUsage)
                  0001b018    00000068     wlan_cmd.obj (.text:printP2PStartUsage)
                  0001b080    00000068     wlan_cmd.obj (.text:printP2PStopUsage)
                  0001b0e8    00000066     sysbios.aem4f : BIOS.obj (.text:xdc_runtime_Core_deleteObject__I)
                  0001b14e    00000064     drivers_msp432p401x.aem4f : SPIMSP432DMA.oem4f (.text:SPIMSP432DMA_close)
                  0001b1b2    00000006                               : SPIMSP432DMA.oem4f (.text:SPIMSP432DMA_control)
                  0001b1b8    00000064     sysbios.aem4f : BIOS.obj (.text:acquireMutexNone$47)
                  0001b21c    00000064     rtsv7M4_T_le_v4SPD16_eabi.lib : s_frexp.c.obj (.text:frexp)
                  0001b280    00000064     sysbios.aem4f : BIOS.obj (.text:pthread_cancel)
                  0001b2e4    00000004     release_pem4f.oem4f (.text:ti_sysbios_family_arm_m3_TaskSupport_Module__startupDone__S)
                  0001b2e8    00000064     sysbios.aem4f : BIOS.obj (.text:pthread_exit)
                  0001b34c    00000004     release_pem4f.oem4f (.text:ti_sysbios_heaps_HeapMem_Module_GateProxy_enter__E)
                  0001b350    00000064     sysbios.aem4f : BIOS.obj (.text:pthread_join)
                  0001b3b4    00000004     release_pem4f.oem4f (.text:ti_sysbios_heaps_HeapMem_Module_GateProxy_leave__E)
                  0001b3b8    00000064     sysbios.aem4f : BIOS.obj (.text:ti_sysbios_family_arm_m3_Hwi_dispatchC__I)
                  0001b41c    00000060     drivers_msp432p401x.aem4f : GPIOMSP432.oem4f (.text:GPIO_setCallback)
                  0001b47c    00000060     simplelink.a : cc_pal.obj (.text:spi_Open)
                  0001b4dc    00000004     release_pem4f.oem4f (.text:ti_sysbios_knl_Clock_TimerProxy_getMaxTicks__E)
                  0001b4e0    00000060     sysbios.aem4f : BIOS.obj (.text:ti_sysbios_knl_Semaphore_post__E)
                  0001b540    00000060                   : BIOS.obj (.text:ti_sysbios_knl_Swi_run__I)
                  0001b5a0    0000005e     msp432p4xx_driverlib.lib : pcm.o (.text:PCM_getCoreVoltageLevel)
                  0001b5fe    00000002     --HOLE-- [fill = 0]
                  0001b600    0000005c     uart_term.obj (.text:InitTerm)
                  0001b65c    0000005c     simplelink.a : spawn.obj (.text:_SlInternalSpawn)
                  0001b6b8    0000005c     wlan_cmd.obj (.text:printAPTransitionDisableUsage)
                  0001b714    0000005c     wlan_cmd.obj (.text:printAPTransitionEnableUsage)
                  0001b770    0000005c     wlan_cmd.obj (.text:printAntSelectionDisableUsage)
                  0001b7cc    0000005c     wlan_cmd.obj (.text:printCoexDisableUsage)
                  0001b828    0000005c     wlan_cmd.obj (.text:printConnectedStationsUsage)
                  0001b884    0000005c     wlan_cmd.obj (.text:printSoftRoamingDisableUsage)
                  0001b8e0    0000005c     wlan_cmd.obj (.text:printTriggeredRoamingDisableUsage)
                  0001b93c    0000005c     wlan_cmd.obj (.text:printWlanDisconnectUsage)
                  0001b998    0000005c     wlan_cmd.obj (.text:printWlanStopApUsage)
                  0001b9f4    0000005c     transceiver_cmd.obj (.text:showPreambleMenu)
                  0001ba50    0000005c     sysbios.aem4f : BIOS.obj (.text:ti_sysbios_knl_Swi_schedule__I)
                  0001baac    00000004     release_pem4f.oem4f (.text:ti_sysbios_knl_Clock_delete)
                  0001bab0    0000005c     sysbios.aem4f : BIOS.obj (.text:ti_sysbios_knl_Task_startCore__E)
                  0001bb0c    00000004     release_pem4f.oem4f (.text:ti_sysbios_knl_Semaphore_delete)
                  0001bb10    0000005c     sysbios.aem4f : BIOS.obj (.text:xdc_runtime_Startup_exec__E)
                  0001bb6c    0000005a     msp432p4xx_driverlib.lib : pcm.o (.text:PCM_getPowerMode)
                  0001bbc6    00000002     --HOLE-- [fill = 0]
                  0001bbc8    00000058     drivers_msp432p401x.aem4f : GPIOMSP432.oem4f (.text:GPIO_write)
                  0001bc20    00000058     simplelink.a : sl_socket.obj (.text:_SlDrvClearCtrlSocket)
                  0001bc78    00000058     boot.aem4f : boot.oem4f (.text)
                  0001bcd0    00000058     wlan_cmd.obj (.text:printDeleteFilterUsage)
                  0001bd28    00000058     wlan_cmd.obj (.text:printDisableFilterUsage)
                  0001bd80    00000058     wlan_cmd.obj (.text:printEnableFilterUsage)
                  0001bdd8    00000058     drivers_msp432p401x.aem4f : UARTMSP432.oem4f (.text:readIsrBinaryBlocking)
                  0001be30    00000058     simplelink.a : sl_socket.obj (.text:sl_Listen)
                  0001be88    00000058     drivers_msp432p401x.aem4f : SPIMSP432DMA.oem4f (.text:spiHwiFxn)
                  0001bee0    00000058     sysbios.aem4f : m3_Hwi_asm_switch.obj (.text:ti_sysbios_family_arm_m3_Hwi_initStacks__E)
                  0001bf38    00000056     rtsv7M4_T_le_v4SPD16_eabi.lib : _printfi.c.obj (.text:_pconv_f)
                  0001bf8e    00000002     --HOLE-- [fill = 0]
                  0001bf90    00000054     msp432p4xx_driverlib.lib : pcm.o (.text:PCM_shutdownDevice)
                  0001bfe4    00000054     rtsv7M4_T_le_v4SPD16_eabi.lib : _ltoa.c.obj (.text:__TI_ltoa)
                  0001c038    00000054     transceiver_cmd.obj (.text:printTranceiverModeUsage)
                  0001c08c    00000054     simplelink.a : netapp.obj (.text:sl_NetAppMDNSRegisterService)
                  0001c0e0    00000054     release_pem4f.oem4f (.text:ti_sysbios_family_arm_m3_Hwi_create)
                  0001c134    00000004     release_pem4f.oem4f (.text:ti_sysbios_knl_Task_delete)
                  0001c138    00000054     sysbios.aem4f : BIOS.obj (.text:ti_sysbios_family_arm_msp432_Timer_initDevice__I)
                  0001c18c    00000052     rtsv7M4_T_le_v4SPD16_eabi.lib : _printfi.c.obj (.text:_ecpy)
                  0001c1de    00000002     --HOLE-- [fill = 0]
                  0001c1e0    00000050     dpl_msp432p401x.aem4f : ClockP_tirtos.oem4f (.text:ClockP_create)
                  0001c230    00000050     drivers_msp432p401x.aem4f : UDMAMSP432.oem4f (.text:UDMAMSP432_hwiFxn)
                  0001c280    00000050     simplelink.a : driver.obj (.text:_SlDrvCmdSend_noWait)
                  0001c2d0    00000050                  : driver.obj (.text:_SlDrvUpdateApiInProgress)
                  0001c320    00000050                  : spawn.obj (.text:_SlInternalSpawnTaskEntry)
                  0001c370    00000050                  : eventreg.obj (.text:_SlNetAppHttpServerHdlr)
                  0001c3c0    00000050                  : eventreg.obj (.text:_SlNetAppRequestHdlr)
                  0001c410    00000050     network_terminal.obj (.text:printHelpUsage)
                  0001c460    00000050     sysbios.aem4f : BIOS.obj (.text:ti_sysbios_family_arm_m3_Hwi_Module_startup__E)
                  0001c4b0    00000050     release_pem4f.oem4f (.text:ti_sysbios_knl_Task_create)
                  0001c500    0000004e     cmd_parser.obj (.text:isChannelAt)
                  0001c54e    00000002     --HOLE-- [fill = 0]
                  0001c550    0000004c     dpl_msp432p401x.aem4f : PowerMSP432_tirtos.oem4f (.text:PowerMSP432_sleepPolicy)
                  0001c59c    0000004c     rtsv7M4_T_le_v4SPD16_eabi.lib : atoi.c.obj (.text:atoi)
                  0001c5e8    0000004c                                   : atol.c.obj (.text:atol)
                  0001c634    0000004c                                   : cpy_tbl.c.obj (.text:copy_in)
                  0001c680    0000004c     drivers_msp432p401x.aem4f : UARTMSP432.oem4f (.text:readIsrBinaryCallback)
                  0001c6cc    0000004c     simplelink.a : netapp.obj (.text:sl_NetAppMDNSUnRegisterService)
                  0001c718    0000004c                  : wlan.obj (.text:sl_WlanProfileDel)
                  0001c764    0000004c                  : wlan.obj (.text:sl_WlanSetMode)
                  0001c7b0    0000004c     sysbios.aem4f : BIOS.obj (.text:ti_sysbios_family_arm_msp432_Timer_postInit__I)
                  0001c7fc    00000004     release_pem4f.oem4f (.text:xdc_runtime_System_Module_GateProxy_enter__E)
                  0001c800    0000004c     sysbios.aem4f : BIOS.obj (.text:ti_sysbios_family_arm_msp432_Timer_start__E)
                  0001c84c    00000004     release_pem4f.oem4f (.text:xdc_runtime_System_Module_GateProxy_leave__E)
                  0001c850    0000004c     sysbios.aem4f : BIOS.obj (.text:ti_sysbios_heaps_HeapMem_getStats__E)
                  0001c89c    00000004     --HOLE-- [fill = 0]
                  0001c8a0    0000004c                   : BIOS.obj (.text:ti_sysbios_knl_Swi_runLoop__I)
                  0001c8ec    00000004     --HOLE-- [fill = 0]
                  0001c8f0    0000004c                   : BIOS.obj (.text:ti_sysbios_knl_Task_allBlockedFunction__I)
                  0001c93c    00000004     --HOLE-- [fill = 0]
                  0001c940    0000004c                   : BIOS.obj (.text:ti_sysbios_knl_Task_schedule__I)
                  0001c98c    00000048     drivers_msp432p401x.aem4f : PowerMSP432.oem4f (.text:Power_releaseConstraint)
                  0001c9d4    00000048     simplelink.a : eventreg.obj (.text:_SlDeviceFatalErrorEvtHdlr)
                  0001ca1c    00000048                  : eventreg.obj (.text:_SlDeviceGeneralEvtHdlr)
                  0001ca64    00000048                  : driver.obj (.text:_SlDrvBasicCmd)
                  0001caac    00000048                  : driver.obj (.text:_SlDrvSyncObjWaitTimeout)
                  0001caf4    00000048                  : eventreg.obj (.text:_SlNetAppEvtHdlr)
                  0001cb3c    00000048                  : eventreg.obj (.text:_SlNetAppRequestMemFree)
                  0001cb84    00000048                  : eventreg.obj (.text:_SlSockEvtHdlr)
                  0001cbcc    00000048                  : eventreg.obj (.text:_SlWlanEvtHdlr)
                  0001cc14    00000004     --HOLE-- [fill = 0]
                  0001cc18    00000048     sysbios.aem4f : BIOS.obj (.text:pthread_mutex_init)
                  0001cc60    00000048     rtsv7M4_T_le_v4SPD16_eabi.lib : fd_toi_t2.asm.obj (.text)
                  0001cca8    00000048     sysbios.aem4f : BIOS.obj (.text:ti_sysbios_family_arm_m3_Hwi_disableInterrupt__E)
                  0001ccf0    00000048                   : BIOS.obj (.text:ti_sysbios_family_arm_m3_Hwi_enableInterrupt__E)
                  0001cd38    00000048                   : BIOS.obj (.text:ti_sysbios_knl_Mailbox_Module_startup__E)
                  0001cd80    00000048                   : BIOS.obj (.text:xdc_runtime_Core_assignParams__I)
                  0001cdc8    00000046     drivers_msp432p401x.aem4f : RingBuf.oem4f (.text:RingBuf_put)
                  0001ce0e    00000002     --HOLE-- [fill = 0]
                  0001ce10    00000046     network_terminal.obj (.text:SimpleLinkGeneralEventHandler)
                  0001ce56    00000002     --HOLE-- [fill = 0]
                  0001ce58    00000044     drivers_msp432p401x.aem4f : SPI.oem4f (.text:SPI_init)
                  0001ce9c    00000044                               : UART.oem4f (.text:UART_init)
                  0001cee0    00000044     simplelink.a : driver.obj (.text:_SlDrvRxIrqHandler)
                  0001cf24    00000044     network_terminal.obj (.text:printClearUsage)
                  0001cf68    00000044     simplelink.a : netapp.obj (.text:sl_NetAppStart)
                  0001cfac    00000044                  : netapp.obj (.text:sl_NetAppStop)
                  0001cff0    00000044     sysbios.aem4f : BIOS.obj (.text:ti_sysbios_family_arm_m3_Hwi_getStackInfo__E)
                  0001d034    00000004     --HOLE-- [fill = 0]
                  0001d038    00000044                   : BIOS.obj (.text:ti_sysbios_knl_Swi_post__E)
                  0001d07c    00000042     simplelink.a : sl_socket.obj (.text:sl_Htonl)
                  0001d0be    00000040                  : sl_socket.obj (.text:CountSetBits)
                  0001d0fe    00000002     --HOLE-- [fill = 0]
                  0001d100    00000040     dpl_msp432p401x.aem4f : HwiP_tirtos.oem4f (.text:HwiP_create)
                  0001d140    00000040     drivers_msp432p401x.aem4f : RingBuf.oem4f (.text:RingBuf_get)
                  0001d180    00000040                               : SPI.oem4f (.text:SPI_open)
                  0001d1c0    00000040                               : UARTMSP432.oem4f (.text:UARTMSP432_read)
                  0001d200    00000040                               : UART.oem4f (.text:UART_open)
                  0001d240    00000040     simplelink.a : driver.obj (.text:_SlFindAndReleasePendingCmd)
                  0001d280    00000040                  : spawn.obj (.text:_SlInternalSpawnWaitForEvent)
                  0001d2c0    00000040                  : eventreg.obj (.text:_SlIsEventRegistered)
                  0001d300    00000040     msp432p4xx_driverlib.lib : spi.o (.text:is_A_Module)
                  0001d340    00000040     drivers_msp432p401x.aem4f : UARTMSP432.oem4f (.text:perfChangeNotifyFxn)
                  0001d380    00000040     sysbios.aem4f : BIOS.obj (.text:pthread_mutex_unlock)
                  0001d3c0    00000040     rtsv7M4_T_le_v4SPD16_eabi.lib : strtok.c.obj (.text:strtok)
                  0001d400    00000040     sysbios.aem4f : BIOS.obj (.text:ti_sysbios_family_arm_msp432_Timer_Module_startup__E)
                  0001d440    00000040                   : BIOS.obj (.text:ti_sysbios_family_arm_msp432_Timer_startup__E)
                  0001d480    00000040                   : BIOS.obj (.text:ti_sysbios_heaps_HeapMem_Instance_init__E)
                  0001d4c0    00000040                   : BIOS.obj (.text:ti_sysbios_knl_Clock_Instance_init__E)
                  0001d500    00000040     rtsv7M4_T_le_v4SPD16_eabi.lib : vsnprintf.c.obj (.text:vsnprintf)
                  0001d540    0000003e     simplelink.a : sl_socket.obj (.text:_SlSocketBuildAddress)
                  0001d57e    0000003e     rtsv7M4_T_le_v4SPD16_eabi.lib : _printfi.c.obj (.text:_fcpy)
                  0001d5bc    0000003e     release_pem4f.oem4f (.text:realloc)
                  0001d5fa    00000006     --HOLE-- [fill = 0]
                  0001d600    0000003e     sysbios.aem4f : BIOS.obj (.text:sem_timedwait)
                  0001d63e    00000002     --HOLE-- [fill = 0]
                  0001d640    0000003c     dpl_msp432p401x.aem4f : SemaphoreP_tirtos.oem4f (.text:SemaphoreP_create)
                  0001d67c    0000003c     simplelink.a : netapp.obj (.text:_SlNetAppCopyPingResultsToReport)
                  0001d6b8    0000003c     sysbios.aem4f : BIOS.obj (.text:clock_settime)
                  0001d6f4    0000003c     network_terminal.obj (.text:gpioButtonFxn1)
                  0001d730    0000003c     radio_tool.obj (.text:radioTool_Close)
                  0001d76c    0000003c     simplelink.a : sl_socket.obj (.text:sl_Htons)
                  0001d7a8    0000003c     sysbios.aem4f : BIOS.obj (.text:sleep)
                  0001d7e4    00000004     --HOLE-- [fill = 0]
                  0001d7e8    0000003c                   : BIOS.obj (.text:ti_sysbios_family_arm_m3_Hwi_Instance_finalize__E)
                  0001d824    00000004     --HOLE-- [fill = 0]
                  0001d828    0000003c                   : BIOS.obj (.text:ti_sysbios_family_arm_msp432_Seconds_Module_startup__E)
                  0001d864    0000003c     release_pem4f.oem4f (.text:ti_sysbios_knl_Clock_create)
                  0001d8a0    0000003c     sysbios.aem4f : BIOS.obj (.text:ti_sysbios_knl_Swi_restore__E)
                  0001d8dc    00000004     --HOLE-- [fill = 0]
                  0001d8e0    0000003c                   : BIOS.obj (.text:usleep)
                  0001d91c    00000038     drivers_msp432p401x.aem4f : PowerMSP432.oem4f (.text:Power_setConstraint)
                  0001d954    00000038                               : PowerMSP432.oem4f (.text:notify)
                  0001d98c    00000004     --HOLE-- [fill = 0]
                  0001d990    00000038     sysbios.aem4f : BIOS.obj (.text:xdc_runtime_System_atexit__E)
                  0001d9c8    00000036     drivers_msp432p401x.aem4f : UARTMSP432.oem4f (.text:UARTMSP432_readCancel)
                  0001d9fe    00000036     rtsv7M4_T_le_v4SPD16_eabi.lib : strncpy.c.obj (.text:strncpy)
                  0001da34    00000034     drivers_msp432p401x.aem4f : GPIOMSP432.oem4f (.text:GPIO_clearInt)
                  0001da68    00000034                               : GPIOMSP432.oem4f (.text:GPIO_disableInt)
                  0001da9c    00000034                               : GPIOMSP432.oem4f (.text:GPIO_enableInt)
                  0001dad0    00000034     rtsv7M4_T_le_v4SPD16_eabi.lib : strstr.c.obj (.text:strstr)
                  0001db04    00000034     release_pem4f.oem4f (.text:ti_sysbios_knl_Semaphore_create)
                  0001db38    00000032     radio_tool.obj (.text:radioTool_GetStats)
                  0001db6a    00000006     --HOLE-- [fill = 0]
                  0001db70    00000032     sysbios.aem4f : BIOS.obj (.text:ti_sysbios_hal_Hwi_initStack)
                  0001dba2    00000002     --HOLE-- [fill = 0]
                  0001dba4    00000030     simplelink.a : cc_pal.obj (.text:HostIrqGPIO_callback)
                  0001dbd4    00000030                  : driver.obj (.text:_SlDrvGlobalObjUnLock)
                  0001dc04    00000030     rtsv7M4_T_le_v4SPD16_eabi.lib : vsnprintf.c.obj (.text:_outs)
                  0001dc34    00000030     drivers_msp432p401x.aem4f : SPIMSP432DMA.oem4f (.text:mapPin)
                  0001dc64    00000030                               : UARTMSP432.oem4f (.text:mapPin)
                  0001dc94    00000030     str.obj (.text:printBorder)
                  0001dcc4    00000030     release_pem4f.oem4f (.text:ti_sysbios_BIOS_atExitFunc__I)
                  0001dcf4    00000030     release_pem4f.oem4f (.text:ti_sysbios_BIOS_startFunc__I)
                  0001dd24    00000004     --HOLE-- [fill = 0]
                  0001dd28    00000030     sysbios.aem4f : BIOS.obj (.text:ti_sysbios_family_arm_m3_TaskSupport_start__E)
                  0001dd58    00000030     release_pem4f.oem4f (.text:ti_sysbios_gates_GateHwi_Object__create__S)
                  0001dd88    00000030     release_pem4f.oem4f (.text:ti_sysbios_gates_GateMutex_Object__create__S)
                  0001ddb8    00000030     sysbios.aem4f : BIOS.obj (.text:ti_sysbios_gates_GateMutex_enter__E)
                  0001dde8    00000030     release_pem4f.oem4f (.text:ti_sysbios_heaps_HeapMem_Object__create__S)
                  0001de18    00000030     sysbios.aem4f : BIOS.obj (.text:ti_sysbios_knl_Mailbox_postInit__I)
                  0001de48    00000030     release_pem4f.oem4f (.text:ti_sysbios_knl_Semaphore_construct)
                  0001de78    00000030     sysbios.aem4f : BIOS.obj (.text:ti_sysbios_knl_Semaphore_pendTimeout__I)
                  0001dea8    00000030                   : BIOS.obj (.text:ti_sysbios_knl_Task_processVitalTaskFlag__I)
                  0001ded8    00000030                   : BIOS.obj (.text:ti_sysbios_knl_Task_restore__E)
                  0001df08    00000030                   : BIOS.obj (.text:ti_sysbios_knl_Task_unblockI__E)
                  0001df38    00000030                   : BIOS.obj (.text:xdc_runtime_System_processAtExit__E)
                  0001df68    0000002e     cmd_parser.obj (.text:FreeStartApCmd)
                  0001df96    0000002e     cmd_parser.obj (.text:FreemDNSAdvertiseCmd)
                  0001dfc4    0000002e     simplelink.a : cc_pal.obj (.text:Mutex_create_handle)
                  0001dff2    00000006     --HOLE-- [fill = 0]
                  0001dff8    0000002e     sysbios.aem4f : BIOS.obj (.text:pthread_setcancelstate)
                  0001e026    0000002e     rtsv7M4_T_le_v4SPD16_eabi.lib : i_tofd_t2.asm.obj (.text)
                  0001e054    0000002e     release_pem4f.oem4f (.text:ti_sysbios_rts_MemAlloc_alloc)
                  0001e082    0000002c     dpl_msp432p401x.aem4f : PowerMSP432_tirtos.oem4f (.text:PowerMSP432_updateFreqs)
                  0001e0ae    00000002     --HOLE-- [fill = 0]
                  0001e0b0    0000002c     msp432p4xx_driverlib.lib : rtc_c.o (.text:RTC_C_holdClock)
                  0001e0dc    0000002c     dpl_msp432p401x.aem4f : SemaphoreP_tirtos.oem4f (.text:SemaphoreP_createBinary)
                  0001e108    0000002c     simplelink.a : driver.obj (.text:_SlDrvSyncObjWaitForever)
                  0001e134    00000004     --HOLE-- [fill = 0]
                  0001e138    0000002c     sysbios.aem4f : BIOS.obj (.text:_pthread_cleanupFxn)
                  0001e164    00000004     --HOLE-- [fill = 0]
                  0001e168    0000002c                   : BIOS.obj (.text:_pthread_delete$43)
                  0001e194    00000004     --HOLE-- [fill = 0]
                  0001e198    0000002c                   : BIOS.obj (.text:clockFxn$41)
                  0001e1c4    0000002c     radio_tool.obj (.text:radioTool_RxStop)
                  0001e1f0    0000002c     release_pem4f.oem4f (.text:ti_sysbios_gates_GateHwi_Handle__label__S)
                  0001e21c    0000002c     release_pem4f.oem4f (.text:ti_sysbios_gates_GateMutex_Handle__label__S)
                  0001e248    0000002c     release_pem4f.oem4f (.text:ti_sysbios_heaps_HeapMem_Handle__label__S)
                  0001e274    0000002c     release_pem4f.oem4f (.text:ti_sysbios_knl_Clock_doTick__I)
                  0001e2a0    0000002c     release_pem4f.oem4f (.text:ti_sysbios_knl_Queue_construct)
                  0001e2cc    0000002a     release_pem4f.oem4f (.text:calloc)
                  0001e2f6    0000002a     drivers_msp432p401x.aem4f : SPIMSP432DMA.oem4f (.text:perfChangeNotifyFxn)
                  0001e320    0000002a     sysbios.aem4f : BIOS.obj (.text:sem_init)
                  0001e34a    0000002a     rtsv7M4_T_le_v4SPD16_eabi.lib : strspn.c.obj (.text:strspn)
                  0001e374    00000028     msp432p4xx_driverlib.lib : pcm.o (.text:PCM_gotoLPM0)
                  0001e39c    00000028     drivers_msp432p401x.aem4f : PowerMSP432.oem4f (.text:Power_registerNotify)
                  0001e3c4    00000028     msp432p4xx_driverlib.lib : spi.o (.text:SPI_getInterruptStatus)
                  0001e3ec    00000028     simplelink.a : flowcont.obj (.text:_SlFlowContSet)
                  0001e414    00000028     drivers_msp432p401x.aem4f : PowerMSP432.oem4f (.text:disableFaultCounter)
                  0001e43c    00000028                               : PowerMSP432.oem4f (.text:disableHFXT)
                  0001e464    00000028                               : UARTMSP432.oem4f (.text:findBaudDividerIndex)
                  0001e48c    00000028     sysbios.aem4f : m3_Hwi_asm.obj (.text:ti_sysbios_family_arm_m3_Hwi_excHandlerAsm__I)
                  0001e4b4    00000004     --HOLE-- [fill = 0]
                  0001e4b8    00000028                   : BIOS.obj (.text:ti_sysbios_knl_Clock_addI__E)
                  0001e4e0    00000028                   : BIOS.obj (.text:ti_sysbios_knl_Swi_Module_startup__E)
                  0001e508    00000026     drivers_msp432p401x.aem4f : List.oem4f (.text:List_put)
                  0001e52e    00000026                               : List.oem4f (.text:List_remove)
                  0001e554    00000026     sysbios.aem4f : m3_Hwi_asm.obj (.text:ti_sysbios_family_arm_m3_Hwi_pendSV__I)
                  0001e57a    00000002     --HOLE-- [fill = 0]
                  0001e57c    00000024     msp432p4xx_driverlib.lib : wdt_a.o (.text:WDT_A_holdTimer)
                  0001e5a0    00000024     simplelink.a : driver.obj (.text:_SlDrvIsApiInProgress)
                  0001e5c4    00000024                  : driver.obj (.text:_SlDrvStartMeasureTimeout)
                  0001e5e8    00000024     sysbios.aem4f : BIOS.obj (.text:pthread_attr_init)
                  0001e60c    00000024     simplelink.a : wlan.obj (.text:sl_WlanDisconnect)
                  0001e630    00000024     rtsv7M4_T_le_v4SPD16_eabi.lib : strcspn.c.obj (.text:strcspn)
                  0001e654    00000024     release_pem4f.oem4f (.text:ti_sysbios_BIOS_registerRTSLock__I)
                  0001e678    00000024     release_pem4f.oem4f (.text:ti_sysbios_BIOS_removeRTSLock__I)
                  0001e69c    00000004     --HOLE-- [fill = 0]
                  0001e6a0    00000024     sysbios.aem4f : BIOS.obj (.text:ti_sysbios_family_arm_msp432_ClockFreqs_setFrequency__E)
                  0001e6c4    00000024     release_pem4f.oem4f (.text:ti_sysbios_gates_GateMutex_Object__delete__S)
                  0001e6e8    00000024     sysbios.aem4f : BIOS.obj (.text:ti_sysbios_knl_Clock_Module_startup__E)
                  0001e70c    00000024     release_pem4f.oem4f (.text:ti_sysbios_knl_Clock_Object__delete__S)
                  0001e730    00000024     sysbios.aem4f : BIOS.obj (.text:ti_sysbios_knl_Clock_start__E)
                  0001e754    00000004     --HOLE-- [fill = 0]
                  0001e758    00000024                   : BIOS.obj (.text:ti_sysbios_knl_Semaphore_Instance_init__E)
                  0001e77c    00000024     release_pem4f.oem4f (.text:ti_sysbios_knl_Semaphore_Object__delete__S)
                  0001e7a0    00000024     sysbios.aem4f : BIOS.obj (.text:ti_sysbios_knl_Task_restoreHwi__E)
                  0001e7c4    00000004     --HOLE-- [fill = 0]
                  0001e7c8    00000024                   : BIOS.obj (.text:xdc_runtime_Error_policyMin__E)
                  0001e7ec    00000020     msp432p4xx_driverlib.lib : cs.o (.text:CS_setExternalClockSourceFrequency)
                  0001e80c    00000020     drivers_msp432p401x.aem4f : PowerMSP432.oem4f (.text:Power_unregisterNotify)
                  0001e82c    00000020                               : RingBuf.oem4f (.text:RingBuf_peek)
                  0001e84c    00000020     transceiver_cmd.obj (.text:showPowMenu)
                  0001e86c    00000020     release_pem4f.oem4f (.text:ti_sysbios_BIOS_rtsLock__I)
                  0001e88c    00000020     release_pem4f.oem4f (.text:ti_sysbios_family_arm_m3_Hwi_Object__delete__S)
                  0001e8ac    00000004     --HOLE-- [fill = 0]
                  0001e8b0    00000020     sysbios.aem4f : BIOS.obj (.text:ti_sysbios_family_arm_m3_Hwi_clearInterrupt__E)
                  0001e8d0    00000020     release_pem4f.oem4f (.text:ti_sysbios_gates_GateHwi_Object__delete__S)
                  0001e8f0    00000020     release_pem4f.oem4f (.text:ti_sysbios_heaps_HeapMem_Object__delete__S)
                  0001e910    00000020     sysbios.aem4f : BIOS.obj (.text:ti_sysbios_knl_Idle_run__E)
                  0001e930    00000020     release_pem4f.oem4f (.text:ti_sysbios_knl_Semaphore_destruct)
                  0001e950    00000020     release_pem4f.oem4f (.text:ti_sysbios_knl_Task_Object__delete__S)
                  0001e970    0000001e     rtsv7M4_T_le_v4SPD16_eabi.lib : strcat.c.obj (.text:strcat)
                  0001e98e    0000001e     sysbios.aem4f : m3_Hwi_asm_switch.obj (.text:ti_sysbios_family_xxx_Hwi_switchAndRunFunc)
                  0001e9ac    0000001c     uart_term.obj (.text:Message)
                  0001e9c8    0000001c     simplelink.a : cc_pal.obj (.text:NwpPowerOff)
                  0001e9e4    0000001c                  : cc_pal.obj (.text:NwpPowerOn)
                  0001ea00    0000001c                  : cc_pal.obj (.text:WiFi_init)
                  0001ea1c    0000001c                  : device.obj (.text:_SlDeviceGetStartResponseConvert)
                  0001ea38    0000001c                  : spawn.obj (.text:_SlInternalIsItSpawnThread)
                  0001ea54    0000001c     ti_drivers_config.obj (.text:dmaErrorFxn)
                  0001ea70    0000001c     rtsv7M4_T_le_v4SPD16_eabi.lib : memccpy.c.obj (.text:memccpy)
                  0001ea8c    00000004     --HOLE-- [fill = 0]
                  0001ea90    0000001c     sysbios.aem4f : BIOS.obj (.text:ti_sysbios_family_arm_m3_Hwi_excHandler__I)
                  0001eaac    00000004     --HOLE-- [fill = 0]
                  0001eab0    0000001c                   : BIOS.obj (.text:ti_sysbios_gates_GateMutex_Instance_init__E)
                  0001eacc    00000004     --HOLE-- [fill = 0]
                  0001ead0    0000001c                   : BIOS.obj (.text:ti_sysbios_knl_Clock_Instance_finalize__E)
                  0001eaec    0000001c     release_pem4f.oem4f (.text:ti_sysbios_knl_Queue_destruct)
                  0001eb08    0000001c     sysbios.aem4f : BIOS.obj (.text:ti_sysbios_knl_Queue_put__E)
                  0001eb24    00000004     --HOLE-- [fill = 0]
                  0001eb28    0000001c                   : BIOS.obj (.text:ti_sysbios_knl_Task_enter__I)
                  0001eb44    00000004     --HOLE-- [fill = 0]
                  0001eb48    0000001c                   : BIOS.obj (.text:ti_sysbios_rts_ti_ReentSupport_getReent__F)
                  0001eb64    00000004     --HOLE-- [fill = 0]
                  0001eb68    0000001c                   : BIOS.obj (.text:xdc_runtime_Memory_valloc__E)
                  0001eb84    00000004     --HOLE-- [fill = 0]
                  0001eb88    0000001c                   : BIOS.obj (.text:xdc_runtime_System_abort__E)
                  0001eba4    0000001a     cmd_parser.obj (.text:FreePingCmd)
                  0001ebbe    0000001a     cmd_parser.obj (.text:FreeRecvCmd)
                  0001ebd8    0000001a     cmd_parser.obj (.text:FreeSendCmd)
                  0001ebf2    0000001a     rtsv7M4_T_le_v4SPD16_eabi.lib : s_copysign.c.obj (.text:copysign)
                  0001ec0c    0000001a     release_pem4f.oem4f (.text:free)
                  0001ec26    00000002     --HOLE-- [fill = 0]
                  0001ec28    00000018     release_pem4f.oem4f (.text:.bootCodeSection:ti_sysbios_family_arm_msp432_init_Boot_init__I)
                  0001ec40    00000018     msp432p4xx_driverlib.lib : spi.o (.text:EUSCI_A_SPI_getInterruptStatus)
                  0001ec58    00000018                              : spi.o (.text:EUSCI_B_SPI_getInterruptStatus)
                  0001ec70    00000018                              : sysctl_a.o (.text:SysCtl_A_disableNMISource)
                  0001ec88    00000018                              : sysctl_a.o (.text:SysCtl_A_enableNMISource)
                  0001eca0    00000018     drivers_msp432p401x.aem4f : UART.oem4f (.text:UART_Params_init)
                  0001ecb8    00000018     simplelink.a : driver.obj (.text:_SlDrvProtectionObjLockWaitForever)
                  0001ecd0    00000018                  : driver.obj (.text:_SlDrvProtectionObjUnLock)
                  0001ece8    00000018     rtsv7M4_T_le_v4SPD16_eabi.lib : args_main.c.obj (.text:_args_main)
                  0001ed00    00000018                                   : vsnprintf.c.obj (.text:_outc)
                  0001ed18    00000018     uart_term.obj (.text:getch)
                  0001ed30    00000018     uart_term.obj (.text:putch)
                  0001ed48    00000018     rtsv7M4_T_le_v4SPD16_eabi.lib : strcmp.c.obj (.text:strcmp)
                  0001ed60    00000018     release_pem4f.oem4f (.text:ti_sysbios_BIOS_rtsUnlock__I)
                  0001ed78    00000018     release_pem4f.oem4f (.text:ti_sysbios_family_arm_m3_Hwi_Module__startupDone__F)
                  0001ed90    00000018     sysbios.aem4f : m3_TaskSupport_asm.obj (.text:ti_sysbios_family_arm_m3_TaskSupport_swap__E)
                  0001eda8    00000018     release_pem4f.oem4f (.text:ti_sysbios_family_arm_msp432_Timer_Module__startupDone__F)
                  0001edc0    00000018     sysbios.aem4f : BIOS.obj (.text:ti_sysbios_gates_GateMutex_leave__E)
                  0001edd8    00000018                   : BIOS.obj (.text:ti_sysbios_knl_Task_sleepTimeout__I)
                  0001edf0    00000018     release_pem4f.oem4f (.text:ti_sysbios_rts_ti_ReentSupport_getTlsAddr__I)
                  0001ee08    00000018     sysbios.aem4f : BIOS.obj (.text:xdc_runtime_Error_init__E)
                  0001ee20    00000018                   : BIOS.obj (.text:xdc_runtime_System_exit__E)
                  0001ee38    00000016     simplelink.a : driver.obj (.text:_SlDrvMemZero)
                  0001ee4e    00000002     --HOLE-- [fill = 0]
                  0001ee50    00000016     sysbios.aem4f : BIOS.obj (.text:pthread_mutex_destroy)
                  0001ee66    00000016     rtsv7M4_T_le_v4SPD16_eabi.lib : strchr.c.obj (.text:strchr)
                  0001ee7c    00000016     release_pem4f.oem4f (.text:ti_sysbios_BIOS_exitFunc__I)
                  0001ee92    00000006     --HOLE-- [fill = 0]
                  0001ee98    00000016     sysbios.aem4f : BIOS.obj (.text:ti_sysbios_knl_Task_unblock__E)
                  0001eeae    00000002     --HOLE-- [fill = 0]
                  0001eeb0    00000014     dpl_msp432p401x.aem4f : ClockP_tirtos.oem4f (.text:ClockP_usleep)
                  0001eec4    00000014     msp432p4xx_driverlib.lib : pcm.o (.text:PCM_getPowerState)
                  0001eed8    00000014     drivers_msp432p401x.aem4f : PowerMSP432.oem4f (.text:Power_idleFunc)
                  0001eeec    00000014                               : SPI.oem4f (.text:SPI_Params_init)
                  0001ef00    00000014                               : UARTMSP432.oem4f (.text:clearTXCPTIFG)
                  0001ef14    00000004     --HOLE-- [fill = 0]
                  0001ef18    00000014     sysbios.aem4f : BIOS.obj (.text:pthread_attr_setschedparam)
                  0001ef2c    00000014     rtsv7M4_T_le_v4SPD16_eabi.lib : strcpy.c.obj (.text:strcpy)
                  0001ef40    00000014                                   : strlen.c.obj (.text:strlen)
                  0001ef54    00000014     release_pem4f.oem4f (.text:ti_sysbios_family_arm_m3_Hwi_Object__get__S)
                  0001ef68    00000014     sysbios.aem4f : BIOS.obj (.text:ti_sysbios_family_arm_m3_Hwi_switchFromBootStack__E)
                  0001ef7c    00000014     release_pem4f.oem4f (.text:ti_sysbios_heaps_HeapMem_Object__get__S)
                  0001ef90    00000014     release_pem4f.oem4f (.text:ti_sysbios_knl_Swi_Object__get__S)
                  0001efa4    00000012     uart_term.obj (.text:ClearTerm)
                  0001efb6    00000012     drivers_msp432p401x.aem4f : RingBuf.oem4f (.text:RingBuf_construct)
                  0001efc8    00000012     dpl_msp432p401x.aem4f : SemaphoreP_tirtos.oem4f (.text:SemaphoreP_pend)
                  0001efda    00000006     --HOLE-- [fill = 0]
                  0001efe0    00000012     sysbios.aem4f : BIOS.obj (.text:_pthread_cleanup_pop)
                  0001eff2    00000006     --HOLE-- [fill = 0]
                  0001eff8    00000012                   : BIOS.obj (.text:_pthread_runStub$43)
                  0001f00a    00000006     --HOLE-- [fill = 0]
                  0001f010    00000012                   : BIOS.obj (.text:ti_sysbios_family_arm_msp432_Seconds_getTime__E)
                  0001f022    00000006     --HOLE-- [fill = 0]
                  0001f028    00000012                   : BIOS.obj (.text:ti_sysbios_hal_Hwi_Module_startup__E)
                  0001f03a    00000012     rtsv7M4_T_le_v4SPD16_eabi.lib : wcslen.c.obj (.text:wcslen)
                  0001f04c    00000012     release_pem4f.oem4f (.text:xdc_runtime_Startup_exec__I)
                  0001f05e    00000010     dpl_msp432p401x.aem4f : HwiP_tirtos.oem4f (.text:HwiP_Params_init)
                  0001f06e    00000010     msp432p4xx_driverlib.lib : pcm.o (.text:PCM_gotoLPM4)
                  0001f07e    00000010                              : pcm.o (.text:PCM_setPowerMode)
                  0001f08e    00000010                              : pcm.o (.text:PCM_setPowerState)
                  0001f09e    00000002     --HOLE-- [fill = 0]
                  0001f0a0    00000010     drivers_msp432p401x.aem4f : PowerMSP432.oem4f (.text:PowerMSP432_getNumPerfLevels)
                  0001f0b0    00000010                               : PowerMSP432.oem4f (.text:Power_disablePolicy)
                  0001f0c0    00000010                               : PowerMSP432.oem4f (.text:Power_enablePolicy)
                  0001f0d0    00000010     msp432p4xx_driverlib.lib : sysctl_a.o (.text:SysCtl_A_getNMISourceStatus)
                  0001f0e0    00000010                              : sysctl.o (.text:SysCtl_getNMISourceStatus)
                  0001f0f0    00000010     simplelink.a : driver.obj (.text:_SlDrvDispatchHttpServerEvents)
                  0001f100    00000010                  : driver.obj (.text:_SlDrvDispatchNetAppRequestEvents)
                  0001f110    00000010                  : driver.obj (.text:_SlDrvIsSpawnOwnGlobalLock)
                  0001f120    00000010     sysbios.aem4f : BIOS.obj (.text:pthread_mutexattr_init)
                  0001f130    00000010                   : BIOS.obj (.text:pthread_mutexattr_settype)
                  0001f140    00000010     drivers_msp432p401x.aem4f : UARTMSP432.oem4f (.text:readBlockingTimeout)
                  0001f150    00000010     sysbios.aem4f : BIOS.obj (.text:ti_sysbios_BIOS_exit__E)
                  0001f160    00000010                   : BIOS.obj (.text:ti_sysbios_BIOS_setCpuFreq__E)
                  0001f170    00000010                   : BIOS.obj (.text:ti_sysbios_BIOS_setThreadType__E)
                  0001f180    00000010                   : BIOS.obj (.text:ti_sysbios_BIOS_start__E)
                  0001f190    00000010                   : m3_TaskSupport_asm.obj (.text:ti_sysbios_family_arm_m3_TaskSupport_glue)
                  0001f1a0    00000010                   : BIOS.obj (.text:ti_sysbios_family_arm_msp432_init_Boot_disableWatchdog)
                  0001f1b0    00000010                   : BIOS.obj (.text:ti_sysbios_gates_GateMutex_Instance_finalize__E)
                  0001f1c0    00000010     release_pem4f.oem4f (.text:ti_sysbios_knl_Mailbox_Object__get__S)
                  0001f1d0    00000010     sysbios.aem4f : BIOS.obj (.text:ti_sysbios_knl_Semaphore_Instance_finalize__E)
                  0001f1e0    00000010                   : BIOS.obj (.text:ti_sysbios_knl_Swi_disable__E)
                  0001f1f0    00000010     release_pem4f.oem4f (.text:ti_sysbios_knl_Task_Object__get__S)
                  0001f200    00000010     sysbios.aem4f : BIOS.obj (.text:ti_sysbios_knl_Task_disable__E)
                  0001f210    00000010                   : BIOS.obj (.text:xdc_runtime_Gate_leaveSystem__E)
                  0001f220    00000010                   : BIOS.obj (.text:xdc_runtime_Memory_free__E)
                  0001f230    00000010                   : BIOS.obj (.text:xdc_runtime_SysCallback_abort__E)
                  0001f240    00000010                   : BIOS.obj (.text:xdc_runtime_SysCallback_exit__E)
                  0001f250    0000000e     simplelink.a : driver.obj (.text:_SlDrvObjLockWaitForever)
                  0001f25e    0000000e                  : driver.obj (.text:_SlDrvObjUnLock)
                  0001f26c    0000000e                  : driver.obj (.text:_SlDrvResetCmdExt)
                  0001f27a    0000000e                  : driver.obj (.text:_SlDrvSyncObjSignal)
                  0001f288    0000000e     rtsv7M4_T_le_v4SPD16_eabi.lib : copy_decompress_none.c.obj (.text:decompress:none:__TI_decompress_none)
                  0001f296    00000002     --HOLE-- [fill = 0]
                  0001f298    0000000e     sysbios.aem4f : BIOS.obj (.text:pthread_attr_setdetachstate)
                  0001f2a6    00000002     --HOLE-- [fill = 0]
                  0001f2a8    0000000e                   : BIOS.obj (.text:sem_wait)
                  0001f2b6    0000000e     simplelink.a : cc_pal.obj (.text:spi_Close)
                  0001f2c4    00000004     --HOLE-- [fill = 0]
                  0001f2c8    0000000e     sysbios.aem4f : BIOS.obj (.text:ti_sysbios_knl_Idle_loop__E)
                  0001f2d6    00000002     --HOLE-- [fill = 0]
                  0001f2d8    0000000e                   : BIOS.obj (.text:ti_sysbios_knl_Queue_empty__E)
                  0001f2e6    0000000c     ti_drivers_config.obj (.text:Board_init)
                  0001f2f2    0000000c     msp432p4xx_driverlib.lib : cpu.o (.text:CPU_cpsid)
                  0001f2fe    0000000c                              : cpu.o (.text:CPU_cpsie)
                  0001f30a    0000000c     dpl_msp432p401x.aem4f : ClockP_tirtos.oem4f (.text:ClockP_delete)
                  0001f316    00000002     --HOLE-- [fill = 0]
                  0001f318    0000000c                           : ClockP_tirtos.oem4f (.text:ClockP_getSystemTickPeriod)
                  0001f324    0000000c                           : HwiP_tirtos.oem4f (.text:HwiP_delete)
                  0001f330    0000000c     drivers_msp432p401x.aem4f : PowerMSP432.oem4f (.text:Power_getConstraintMask)
                  0001f33c    0000000c                               : PowerMSP432.oem4f (.text:Power_getPerformanceLevel)
                  0001f348    0000000c     dpl_msp432p401x.aem4f : SemaphoreP_tirtos.oem4f (.text:SemaphoreP_delete)
                  0001f354    0000000c     network_terminal.obj (.text:SimpleLinkHttpServerEventHandler)
                  0001f360    0000000c     network_terminal.obj (.text:SimpleLinkNetAppRequestEventHandler)
                  0001f36c    0000000c     simplelink.a : device.obj (.text:_SlDeviceResetRequestInitCompletedCB)
                  0001f378    0000000c     rtsv7M4_T_le_v4SPD16_eabi.lib : _lock.c.obj (.text:_register_lock)
                  0001f384    0000000c                                   : _lock.c.obj (.text:_register_unlock)
                  0001f390    0000000c     network_terminal.obj (.text:cmdClearcallback)
                  0001f39c    0000000c     rtsv7M4_T_le_v4SPD16_eabi.lib : copy_zero_init.c.obj (.text:decompress:ZI:__TI_zero_init)
                  0001f3a8    0000000c     sysbios.aem4f : BIOS.obj (.text:pthread_self)
                  0001f3b4    0000000c     release_pem4f.oem4f (.text:ti_sysbios_family_arm_m3_Hwi_Params__init__S)
                  0001f3c0    0000000c     sysbios.aem4f : BIOS.obj (.text:ti_sysbios_family_arm_m3_Hwi_disableFxn__E)
                  0001f3cc    00000004     --HOLE-- [fill = 0]
                  0001f3d0    0000000c                   : BIOS.obj (.text:ti_sysbios_family_arm_m3_TaskSupport_getStackAlignment__E)
                  0001f3dc    00000004     --HOLE-- [fill = 0]
                  0001f3e0    0000000c                   : BIOS.obj (.text:ti_sysbios_family_arm_msp432_Seconds_setTime__E)
                  0001f3ec    00000004     --HOLE-- [fill = 0]
                  0001f3f0    0000000c                   : BIOS.obj (.text:ti_sysbios_family_arm_msp432_Timer_getMaxTicks__E)
                  0001f3fc    00000004     --HOLE-- [fill = 0]
                  0001f400    0000000c                   : BIOS.obj (.text:ti_sysbios_gates_GateHwi_enter__E)
                  0001f40c    0000000c     release_pem4f.oem4f (.text:ti_sysbios_knl_Clock_Params__init__S)
                  0001f418    0000000c     sysbios.aem4f : BIOS.obj (.text:ti_sysbios_knl_Clock_getTicks__E)
                  0001f424    0000000c     release_pem4f.oem4f (.text:ti_sysbios_knl_Queue_Object__get__S)
                  0001f430    0000000c     release_pem4f.oem4f (.text:ti_sysbios_knl_Semaphore_Params__init__S)
                  0001f43c    0000000c     release_pem4f.oem4f (.text:ti_sysbios_knl_Task_Params__init__S)
                  0001f448    0000000c     sysbios.aem4f : BIOS.obj (.text:ti_sysbios_knl_Task_self__E)
                  0001f454    00000004     --HOLE-- [fill = 0]
                  0001f458    0000000c                   : BIOS.obj (.text:ti_sysbios_rts_ti_ReentSupport_taskRegHook__I)
                  0001f464    00000004     --HOLE-- [fill = 0]
                  0001f468    0000000c                   : BIOS.obj (.text:xdc_runtime_Gate_enterSystem__E)
                  0001f474    00000004     --HOLE-- [fill = 0]
                  0001f478    0000000c                   : BIOS.obj (.text:xdc_runtime_Startup_rtsDone__E)
                  0001f484    0000000a     dpl_msp432p401x.aem4f : ClockP_tirtos.oem4f (.text:ClockP_Params_init)
                  0001f48e    0000000a     drivers_msp432p401x.aem4f : SPI.oem4f (.text:SPI_close)
                  0001f498    0000000a                               : SPI.oem4f (.text:SPI_transfer)
                  0001f4a2    0000000a     network_terminal.obj (.text:SimpleLinkNetAppRequestMemFreeEventHandler)
                  0001f4ac    0000000a     network_terminal.obj (.text:SimpleLinkSockEventHandler)
                  0001f4b6    0000000a     drivers_msp432p401x.aem4f : UART.oem4f (.text:UART_control)
                  0001f4c0    0000000a                               : UART.oem4f (.text:UART_readPolling)
                  0001f4ca    0000000a                               : UART.oem4f (.text:UART_writePolling)
                  0001f4d4    00000004     --HOLE-- [fill = 0]
                  0001f4d8    0000000a     sysbios.aem4f : BIOS.obj (.text:sem_destroy)
                  0001f4e2    00000006     --HOLE-- [fill = 0]
                  0001f4e8    0000000a                   : BIOS.obj (.text:sem_post)
                  0001f4f2    0000000a     simplelink.a : device.obj (.text:sl_Task)
                  0001f4fc    0000000a     release_pem4f.oem4f (.text:xdc_runtime_IHeap_alloc)
                  0001f506    0000000a     release_pem4f.oem4f (.text:xdc_runtime_IHeap_free)
                  0001f510    00000008     dpl_msp432p401x.aem4f : SemaphoreP_tirtos.oem4f (.text:SemaphoreP_Params_init)
                  0001f518    00000008     simplelink.a : cc_pal.obj (.text:TimerGetCurrentTimestamp)
                  0001f520    00000008     drivers_msp432p401x.aem4f : SPIMSP432DMA.oem4f (.text:blockingTransferCallback)
                  0001f528    00000008     sysbios.aem4f : BIOS.obj (.text:pthread_attr_setstacksize)
                  0001f530    00000008                   : BIOS.obj (.text:pthread_mutex_lock)
                  0001f538    00000008     drivers_msp432p401x.aem4f : UARTMSP432.oem4f (.text:readSemCallback)
                  0001f540    00000008     sysbios.aem4f : BIOS.obj (.text:sem_getvalue)
                  0001f548    00000008                   : BIOS.obj (.text:ti_sysbios_family_arm_m3_Hwi_doSwiRestore__I)
                  0001f550    00000008                   : BIOS.obj (.text:ti_sysbios_family_arm_m3_Hwi_startup__E)
                  0001f558    00000008     drivers_msp432p401x.aem4f : UARTMSP432.oem4f (.text:txcptEnabledStatus)
                  0001f560    00000008                               : UARTMSP432.oem4f (.text:writeSemCallback)
                  0001f568    00000006     sysbios.aem4f : BIOS.obj (.text:ti_sysbios_family_arm_m3_Hwi_doTaskRestore__I)
                  0001f56e    00000002     --HOLE-- [fill = 0]
                  0001f570    00000006                   : BIOS.obj (.text:ti_sysbios_family_arm_m3_Hwi_restoreFxn__E)
                  0001f576    00000002     --HOLE-- [fill = 0]
                  0001f578    00000006                   : BIOS.obj (.text:ti_sysbios_gates_GateHwi_leave__E)
                  0001f57e    00000002     --HOLE-- [fill = 0]
                  0001f580    00000006                   : BIOS.obj (.text:ti_sysbios_heaps_HeapMem_isBlocking__E)
                  0001f586    00000002     --HOLE-- [fill = 0]
                  0001f588    00000006                   : BIOS.obj (.text:ti_sysbios_knl_Clock_stop__E)
                  0001f58e    00000002     --HOLE-- [fill = 0]
                  0001f590    00000006                   : BIOS.obj (.text:ti_sysbios_knl_Queue_Instance_init__E)
                  0001f596    00000002     --HOLE-- [fill = 0]
                  0001f598    00000006                   : BIOS.obj (.text:ti_sysbios_knl_Swi_startup__E)
                  0001f59e    00000002     --HOLE-- [fill = 0]
                  0001f5a0    00000006                   : BIOS.obj (.text:xdc_runtime_System_Module_startup__E)
                  0001f5a6    00000002     --HOLE-- [fill = 0]
                  0001f5a8    00000004                   : BIOS.obj (.text:__aeabi_errno_addr)
                  0001f5ac    00000004     --HOLE-- [fill = 0]
                  0001f5b0    00000004                   : BIOS.obj (.text:ti_sysbios_gates_GateHwi_query__E)
                  0001f5b4    00000004     --HOLE-- [fill = 0]
                  0001f5b8    00000004                   : BIOS.obj (.text:ti_sysbios_gates_GateMutex_query__E)
                  0001f5bc    00000004     --HOLE-- [fill = 0]
                  0001f5c0    00000004                   : BIOS.obj (.text:ti_sysbios_knl_Clock_setTimeout__E)
                  0001f5c4    00000004     --HOLE-- [fill = 0]
                  0001f5c8    00000004                   : BIOS.obj (.text:ti_sysbios_knl_Task_startup__E)
                  0001f5cc    00000004     --HOLE-- [fill = 0]
                  0001f5d0    00000002                   : BIOS.obj (.text:ti_sysbios_BIOS_linkedWithIncorrectBootLibrary__E)
                  0001f5d2    00000006     --HOLE-- [fill = 0]
                  0001f5d8    00000002                   : BIOS.obj (.text:ti_sysbios_gates_GateHwi_Instance_init__E)
                  0001f5da    00000006     --HOLE-- [fill = 0]
                  0001f5e0    00000002                   : BIOS.obj (.text:ti_sysbios_knl_Clock_logTick__E)
                  0001f5e2    00000006     --HOLE-- [fill = 0]
                  0001f5e8    00000002                   : BIOS.obj (.text:xdc_runtime_SysCallback_defaultAbort)
                  0001f5ea    00000006     --HOLE-- [fill = 0]
                  0001f5f0    00000002                   : BIOS.obj (.text:xdc_runtime_SysCallback_defaultExit)
                  0001f5f2    00000006     --HOLE-- [fill = 0]
                  0001f5f8    00000002                   : BIOS.obj (.text:xdc_runtime_System_abortSpin__E)
                  0001f5fa    00000006     --HOLE-- [fill = 0]
                  0001f600    00000002                   : BIOS.obj (.text:xdc_runtime_System_exitSpin__E)

.const     0    0001f604    00003656     
                  0001f604    00002760     str.obj (.const:.string)
                  00021d64    0000048c     netapp_cmd.obj (.const:$P$T1$2)
                  000221f0    00000101     rtsv7M4_T_le_v4SPD16_eabi.lib : ctype.c.obj (.const:.string:_ctypes_)
                  000222f1    00000001     release_pem4f.oem4f (.const:xdc_runtime_Error_policy__C)
                  000222f2    00000070     simplelink.a : driver.obj (.const:OpcodeTranslateTable)
                  00022362    00000002     release_pem4f.oem4f (.const:ti_sysbios_family_arm_m3_Hwi_Module__id__C)
                  00022364    00000060     rtsv7M4_T_le_v4SPD16_eabi.lib : mktime.c.obj (.const:$O1$$)
                  000223c4    00000050     simplelink.a : driver.obj (.const:_SlActionLookupTable)
                  00022414    0000004c     transceiver_cmd.obj (.const:$P$T0$1)
                  00022460    00000040     ti_drivers_config.obj (.const:uartMSP432Baudrates)
                  000224a0    0000003c     release_pem4f.oem4f (.const:ti_sysbios_knl_Task_Object__PARAMS__C)
                  000224dc    00000038     ti_drivers_config.obj (.const:PowerMSP432_config)
                  00022514    00000034     ti_drivers_net_wifi_config.obj (.const:SimpleLinkWifiCC32XX_config)
                  00022548    00000030     release_pem4f.oem4f (.const:ti_sysbios_family_arm_m3_Hwi_Object__PARAMS__C)
                  00022578    0000002c     ti_drivers_config.obj (.const:uartMSP432HWAttrs)
                  000225a4    00000028     drivers_msp432p401x.aem4f : UARTMSP432.oem4f (.const:UARTMSP432_fxnTable)
                  000225cc    00000028     release_pem4f.oem4f (.const:ti_sysbios_heaps_HeapMem_Module__FXNS__C)
                  000225f4    00000024     drivers_msp432p401x.aem4f : UART.oem4f (.const:UART_defaultParams)
                  00022618    00000024     ti_drivers_config.obj (.const:spiMSP432DMAHWAttrs)
                  0002263c    00000024     release_pem4f.oem4f (.const:ti_sysbios_gates_GateHwi_Module__FXNS__C)
                  00022660    00000024     release_pem4f.oem4f (.const:ti_sysbios_gates_GateMutex_Module__FXNS__C)
                  00022684    00000024     release_pem4f.oem4f (.const:ti_sysbios_heaps_HeapMem_Object__PARAMS__C)
                  000226a8    00000024     release_pem4f.oem4f (.const:ti_sysbios_knl_Clock_Object__PARAMS__C)
                  000226cc    00000024     release_pem4f.oem4f (.const:ti_sysbios_knl_Semaphore_Object__PARAMS__C)
                  000226f0    00000024     release_pem4f.oem4f (.const:xdc_runtime_Startup_sfxnTab__A)
                  00022714    00000020     simplelink.a : driver.obj (.const:RxMsgClassLUT)
                  00022734    00000020     drivers_msp432p401x.aem4f : SPI.oem4f (.const:SPI_defaultParams)
                  00022754    00000020     simplelink.a : device.obj (.const:StartResponseLUT)
                  00022774    00000020     drivers_msp432p401x.aem4f : UARTMSP432.oem4f (.const:staticFxnTable)
                  00022794    00000020     release_pem4f.oem4f (.const:ti_sysbios_family_arm_m3_Hwi_Object__DESC__C)
                  000227b4    00000020     release_pem4f.oem4f (.const:ti_sysbios_gates_GateHwi_Object__DESC__C)
                  000227d4    00000020     release_pem4f.oem4f (.const:ti_sysbios_gates_GateMutex_Object__DESC__C)
                  000227f4    00000020     release_pem4f.oem4f (.const:ti_sysbios_heaps_HeapMem_Object__DESC__C)
                  00022814    00000020     release_pem4f.oem4f (.const:ti_sysbios_knl_Clock_Object__DESC__C)
                  00022834    00000020     release_pem4f.oem4f (.const:ti_sysbios_knl_Queue_Object__DESC__C)
                  00022854    00000020     release_pem4f.oem4f (.const:ti_sysbios_knl_Semaphore_Object__DESC__C)
                  00022874    00000020     release_pem4f.oem4f (.const:ti_sysbios_knl_Task_Object__DESC__C)
                  00022894    00000018     drivers_msp432p401x.aem4f : SPIMSP432DMA.oem4f (.const:SPIMSP432DMA_fxnTable)
                  000228ac    00000018     release_pem4f.oem4f (.const:ti_sysbios_gates_GateHwi_Object__PARAMS__C)
                  000228c4    00000018     release_pem4f.oem4f (.const:ti_sysbios_gates_GateMutex_Object__PARAMS__C)
                  000228dc    00000018     release_pem4f.oem4f (.const:ti_sysbios_knl_Queue_Object__PARAMS__C)
                  000228f4    00000018     release_pem4f.oem4f (.const:ti_sysbios_knl_Task_hooks__A)
                  0002290c    00000014     netapp_cmd.obj (.const:$P$T0$1)
                  00022920    00000014     network_terminal.obj (.const:$P$T0$1)
                  00022934    00000014     simplelink.a : device.obj (.const:$P$T0$1)
                  00022948    00000014                  : driver.obj (.const:$P$T0$1)
                  0002295c    00000014     wlan_cmd.obj (.const:$P$T0$1)
                  00022970    00000014     wlan_cmd.obj (.const:$P$T1$2)
                  00022984    00000014     simplelink.a : driver.obj (.const:$P$T2$3)
                  00022998    00000014     wlan_cmd.obj (.const:$P$T2$3)
                  000229ac    00000014     wlan_cmd.obj (.const:$P$T3$4)
                  000229c0    00000014     wlan_cmd.obj (.const:$P$T4$5)
                  000229d4    00000014     ti_drivers_config.obj (.const:GPIOMSP432_config)
                  000229e8    00000012     release_pem4f.oem4f (.const:xdc_runtime_Startup_sfxnRts__A)
                  000229fa    00000002     release_pem4f.oem4f (.const:ti_sysbios_family_arm_msp432_init_Boot_bypassHFXT__C)
                  000229fc    00000010     wlan_cmd.obj (.const:$P$T5$6)
                  00022a0c    0000000c     ti_drivers_config.obj (.const:SPI_config)
                  00022a18    0000000c     ti_drivers_config.obj (.const:UART_config)
                  00022a24    0000000c     release_pem4f.oem4f (.const:ti_sysbios_family_arm_msp432_Seconds_daysPerMonthLeap__A)
                  00022a30    0000000c     release_pem4f.oem4f (.const:ti_sysbios_family_arm_msp432_Seconds_daysPerMonthNonLeap__A)
                  00022a3c    0000000c     ti_drivers_config.obj (.const:udmaMSP432HWAttrs)
                  00022a48    0000000c     ti_drivers_config.obj (.const:wifiSimplelinkHWAttrs)
                  00022a54    0000000c     release_pem4f.oem4f (.const:xdc_runtime_Startup_firstFxns__A)
                  00022a60    00000008     radio_tool.obj (.const:$P$T0$1)
                  00022a68    00000008     network_terminal.obj (.const:$P$T1$2)
                  00022a70    00000008     ti_drivers_config.obj (.const:UDMAMSP432_config)
                  00022a78    00000008     drivers_msp432p401x.aem4f : SPIMSP432DMA.oem4f (.const:frameFormat)
                  00022a80    00000008     simplelink.a : driver.obj (.const:g_H2NCnysPattern)
                  00022a88    00000008                  : driver.obj (.const:g_H2NSyncPattern)
                  00022a90    00000008     release_pem4f.oem4f (.const:ti_sysbios_knl_Idle_funcList__A)
                  00022a98    00000008     release_pem4f.oem4f (.const:ti_sysbios_knl_Idle_funcList__C)
                  00022aa0    00000008     release_pem4f.oem4f (.const:ti_sysbios_knl_Task_hooks__C)
                  00022aa8    00000008     release_pem4f.oem4f (.const:xdc_runtime_Startup_firstFxns__C)
                  00022ab0    00000008     release_pem4f.oem4f (.const:xdc_runtime_Startup_lastFxns__C)
                  00022ab8    00000006     drivers_msp432p401x.aem4f : GPIOMSP432.oem4f (.const:.string:interruptType)
                  00022abe    00000006                               : GPIOMSP432.oem4f (.const:.string:portInterruptIds)
                  00022ac4    00000006     ti_drivers_config.obj (.const)
                  00022aca    00000005     drivers_msp432p401x.aem4f : UARTMSP432.oem4f (.const:.string:parityTypes)
                  00022acf    00000001     --HOLE-- [fill = 0]
                  00022ad0    00000004     simplelink.a : netapp.obj (.const:$P$T0$1)
                  00022ad4    00000004                  : sl_socket.obj (.const:$P$T0$1)
                  00022ad8    00000004                  : wlan.obj (.const:$P$T0$1)
                  00022adc    00000004                  : sl_socket.obj (.const:$P$T1$2)
                  00022ae0    00000004                  : wlan.obj (.const:$P$T1$2)
                  00022ae4    00000004                  : sl_socket.obj (.const:$P$T2$3)
                  00022ae8    00000004                  : wlan.obj (.const:$P$T3$4)
                  00022aec    00000004     cmd_parser.obj (.const:.string:$P$T0$1)
                  00022af0    00000004     ti_drivers_config.obj (.const:WiFi_config)
                  00022af4    00000004     simplelink.a : sl_socket.obj (.const:_SlAcceptCmdCtrl)
                  00022af8    00000004                  : device.obj (.const:_SlDeviceGetCmdCtrl)
                  00022afc    00000004                  : device.obj (.const:_SlDeviceSetCmdCtrl)
                  00022b00    00000004                  : netapp.obj (.const:_SlGetHostByNameCtrl)
                  00022b04    00000004                  : netapp.obj (.const:_SlGetHostByServiceCtrl)
                  00022b08    00000004                  : netapp.obj (.const:_SlGetServiceListeCtrl)
                  00022b0c    00000004                  : sl_socket.obj (.const:_SlListenCmdCtrl)
                  00022b10    00000004                  : netapp.obj (.const:_SlNetAppGetCmdCtrl)
                  00022b14    00000004                  : netapp.obj (.const:_SlNetAppSendResponseCmdCtrl)
                  00022b18    00000004                  : netapp.obj (.const:_SlNetAppSendTokenValueCmdCtrl)
                  00022b1c    00000004                  : netapp.obj (.const:_SlNetAppSetCmdCtrl)
                  00022b20    00000004                  : netapp.obj (.const:_SlNetAppStartCtrl)
                  00022b24    00000004                  : netapp.obj (.const:_SlNetAppStopCtrl)
                  00022b28    00000004                  : netcfg.obj (.const:_SlNetCfgGetCmdCtrl)
                  00022b2c    00000004                  : netcfg.obj (.const:_SlNetCfgSetCmdCtrl)
                  00022b30    00000004                  : wlan.obj (.const:_SlPolicySetCmdCtrl)
                  00022b34    00000004                  : wlan.obj (.const:_SlProfileDelCmdCtrl)
                  00022b38    00000004                  : wlan.obj (.const:_SlProfileGetCmdCtrl)
                  00022b3c    00000004                  : wlan.obj (.const:_SlProvisioningCmdCtrl)
                  00022b40    00000004                  : sl_socket.obj (.const:_SlRecvCmdCtrl)
                  00022b44    00000004                  : sl_socket.obj (.const:_SlRecvfomCmdCtrl)
                  00022b48    00000004                  : netapp.obj (.const:_SlRegisterServiceCtrl)
                  00022b4c    00000004                  : sl_socket.obj (.const:_SlSelectCmdCtrl)
                  00022b50    00000004                  : sl_socket.obj (.const:_SlSendCmdCtrl)
                  00022b54    00000004                  : sl_socket.obj (.const:_SlSetSockOptCmdCtrl)
                  00022b58    00000004                  : sl_socket.obj (.const:_SlSockCloseCmdCtrl)
                  00022b5c    00000004                  : sl_socket.obj (.const:_SlSockSocketCmdCtrl)
                  00022b60    00000004                  : device.obj (.const:_SlStopCmdCtrl)
                  00022b64    00000004                  : wlan.obj (.const:_SlWlanCfgGetCmdCtrl)
                  00022b68    00000004                  : wlan.obj (.const:_SlWlanCfgSetCmdCtrl)
                  00022b6c    00000004                  : wlan.obj (.const:_SlWlanGetExtNetworkListCtrl)
                  00022b70    00000004                  : wlan.obj (.const:_SlWlanGetNetworkListCtrl)
                  00022b74    00000004                  : wlan.obj (.const:_SlWlanRxFilterAddtCmdCtrl)
                  00022b78    00000004                  : wlan.obj (.const:_SlWlanSetModeCmdCtrl)
                  00022b7c    00000004     drivers_msp432p401x.aem4f : UARTMSP432.oem4f (.const:stopBits)
                  00022b80    00000004     release_pem4f.oem4f (.const:ti_sysbios_family_arm_m3_Hwi_E_alreadyDefined__C)
                  00022b84    00000004     release_pem4f.oem4f (.const:ti_sysbios_family_arm_m3_Hwi_E_badIntNum__C)
                  00022b88    00000004     release_pem4f.oem4f (.const:ti_sysbios_family_arm_m3_Hwi_NUM_INTERRUPTS__C)
                  00022b8c    00000004     release_pem4f.oem4f (.const:ti_sysbios_family_arm_m3_Hwi_Object__count__C)
                  00022b90    00000004     release_pem4f.oem4f (.const:ti_sysbios_family_arm_m3_Hwi_ccr__C)
                  00022b94    00000004     release_pem4f.oem4f (.const:ti_sysbios_family_arm_m3_Hwi_excHandlerFunc__C)
                  00022b98    00000004     release_pem4f.oem4f (.const:ti_sysbios_family_arm_m3_Hwi_nullIsrFunc__C)
                  00022b9c    00000004     release_pem4f.oem4f (.const:ti_sysbios_family_arm_m3_Hwi_priGroup__C)
                  00022ba0    00000004     release_pem4f.oem4f (.const:ti_sysbios_family_arm_m3_Hwi_swiDisable__C)
                  00022ba4    00000004     release_pem4f.oem4f (.const:ti_sysbios_family_arm_m3_Hwi_swiRestore__C)
                  00022ba8    00000004     release_pem4f.oem4f (.const:ti_sysbios_family_arm_m3_TaskSupport_stackAlignment__C)
                  00022bac    00000004     release_pem4f.oem4f (.const:ti_sysbios_family_arm_msp432_Seconds_daysPerMonthLeap__C)
                  00022bb0    00000004     release_pem4f.oem4f (.const:ti_sysbios_family_arm_msp432_Seconds_daysPerMonthNonLeap__C)
                  00022bb4    00000004     release_pem4f.oem4f (.const:ti_sysbios_family_arm_msp432_Timer_numTimerDevices__C)
                  00022bb8    00000004     release_pem4f.oem4f (.const:ti_sysbios_family_arm_msp432_Timer_startupNeeded__C)
                  00022bbc    00000004     release_pem4f.oem4f (.const:ti_sysbios_gates_GateMutex_Instance_State_sem__O)
                  00022bc0    00000004     release_pem4f.oem4f (.const:ti_sysbios_heaps_HeapMem_E_memory__C)
                  00022bc4    00000004     release_pem4f.oem4f (.const:ti_sysbios_heaps_HeapMem_Module__gateObj__C)
                  00022bc8    00000004     release_pem4f.oem4f (.const:ti_sysbios_heaps_HeapMem_Object__count__C)
                  00022bcc    00000004     release_pem4f.oem4f (.const:ti_sysbios_heaps_HeapMem_primaryHeapBaseAddr__C)
                  00022bd0    00000004     release_pem4f.oem4f (.const:ti_sysbios_heaps_HeapMem_primaryHeapEndAddr__C)
                  00022bd4    00000004     release_pem4f.oem4f (.const:ti_sysbios_heaps_HeapMem_reqAlign__C)
                  00022bd8    00000004     release_pem4f.oem4f (.const:ti_sysbios_knl_Clock_Module_State_clockQ__O)
                  00022bdc    00000004     release_pem4f.oem4f (.const:ti_sysbios_knl_Clock_tickPeriod__C)
                  00022be0    00000004     release_pem4f.oem4f (.const:ti_sysbios_knl_Mailbox_Instance_State_freeQue__O)
                  00022be4    00000004     release_pem4f.oem4f (.const:ti_sysbios_knl_Mailbox_Object__count__C)
                  00022be8    00000004     release_pem4f.oem4f (.const:ti_sysbios_knl_Mailbox_maxTypeAlign__C)
                  00022bec    00000004     release_pem4f.oem4f (.const:ti_sysbios_knl_Semaphore_Instance_State_pendQ__O)
                  00022bf0    00000004     release_pem4f.oem4f (.const:ti_sysbios_knl_Swi_Object__count__C)
                  00022bf4    00000004     release_pem4f.oem4f (.const:ti_sysbios_knl_Task_Module_State_inactiveQ__O)
                  00022bf8    00000004     release_pem4f.oem4f (.const:ti_sysbios_knl_Task_Object__count__C)
                  00022bfc    00000004     release_pem4f.oem4f (.const:ti_sysbios_knl_Task_Object__heap__C)
                  00022c00    00000004     release_pem4f.oem4f (.const:ti_sysbios_knl_Task_allBlockedFunc__C)
                  00022c04    00000004     release_pem4f.oem4f (.const:ti_sysbios_knl_Task_defaultStackHeap__C)
                  00022c08    00000004     release_pem4f.oem4f (.const:ti_sysbios_knl_Task_defaultStackSize__C)
                  00022c0c    00000004     release_pem4f.oem4f (.const:ti_sysbios_knl_Task_numConstructedTasks__C)
                  00022c10    00000004     release_pem4f.oem4f (.const:xdc_runtime_Error_E_memory__C)
                  00022c14    00000004     release_pem4f.oem4f (.const:xdc_runtime_Error_policyFxn__C)
                  00022c18    00000004     release_pem4f.oem4f (.const:xdc_runtime_IGateProvider_Interface__BASE__C)
                  00022c1c    00000004     release_pem4f.oem4f (.const:xdc_runtime_IHeap_Interface__BASE__C)
                  00022c20    00000004     release_pem4f.oem4f (.const:xdc_runtime_IModule_Interface__BASE__C)
                  00022c24    00000004     release_pem4f.oem4f (.const:xdc_runtime_Memory_defaultHeapInstance__C)
                  00022c28    00000004     release_pem4f.oem4f (.const:xdc_runtime_Startup_execImpl__C)
                  00022c2c    00000004     release_pem4f.oem4f (.const:xdc_runtime_Startup_maxPasses__C)
                  00022c30    00000004     release_pem4f.oem4f (.const:xdc_runtime_Startup_sfxnRts__C)
                  00022c34    00000004     release_pem4f.oem4f (.const:xdc_runtime_Startup_sfxnTab__C)
                  00022c38    00000004     release_pem4f.oem4f (.const:xdc_runtime_SysCallback_abortFxn__C)
                  00022c3c    00000004     release_pem4f.oem4f (.const:xdc_runtime_SysCallback_exitFxn__C)
                  00022c40    00000004     release_pem4f.oem4f (.const:xdc_runtime_System_Module__gateObj__C)
                  00022c44    00000004     release_pem4f.oem4f (.const:xdc_runtime_System_abortFxn__C)
                  00022c48    00000004     release_pem4f.oem4f (.const:xdc_runtime_System_exitFxn__C)
                  00022c4c    00000004     release_pem4f.oem4f (.const:xdc_runtime_System_maxAtexitHandlers__C)
                  00022c50    00000002     release_pem4f.oem4f (.const:ti_sysbios_family_arm_msp432_init_Boot_bypassLFXT__C)
                  00022c52    00000002     release_pem4f.oem4f (.const:ti_sysbios_family_arm_msp432_init_Boot_enableHFXT__C)
                  00022c54    00000002     release_pem4f.oem4f (.const:ti_sysbios_family_arm_msp432_init_Boot_enableLFXT__C)
                  00022c56    00000002     release_pem4f.oem4f (.const:ti_sysbios_heaps_HeapMem_Module__id__C)
                  00022c58    00000002     release_pem4f.oem4f (.const:xdc_runtime_Memory_Module__id__C)

.cinit     0    00022c60    00000d70     
                  00022c60    00000d47     (.cinit..data.load) [load image, compression = lzss]
                  000239a7    00000001     --HOLE-- [fill = 0]
                  000239a8    0000000c     (__TI_handler_table)
                  000239b4    00000004     --HOLE-- [fill = 0]
                  000239b8    00000008     (.cinit..bss.load) [load image, compression = zero_init]
                  000239c0    00000010     (__TI_cinit_table)

.init_array 
*          0    00000000    00000000     UNINITIALIZED

.bss       0    20008200    00001e84     UNINITIALIZED
                  20008200    0000089c     (.common:app_CB)
                  20008a9c    000005dc     (.common:Rx_frame)
                  20009078    000005dc     (.common:Tx_frame)
                  20009654    000003fc     (.common:g_CB)
                  20009a50    00000200     release_pem4f.oem4f (.bss:taskStackSection)
                  20009c50    00000140     (.common:ti_sysbios_family_arm_m3_Hwi_dispatchTable)
                  20009d90    00000048     (.common:spiMSP432DMAObjects)
                  20009dd8    00000028     (.common:g_SlInternalSpawnCB)
                  20009e00    00000100     ti_drivers_config.obj (.bss:dmaControlTable)
                  20009f00    00000080     (.common:uartMSP432Objects)
                  20009f80    00000030     drivers_msp432p401x.aem4f : GPIOMSP432.oem4f (.bss:gpioCallbackInfo)
                  20009fb0    0000002c     (.common:GlobalLockObj)
                  20009fdc    00000020                               : UDMAMSP432.oem4f (.bss:hwiFxnArgs)
                  20009ffc    00000020                               : UDMAMSP432.oem4f (.bss:hwiFxnHandlers)
                  2000a01c    00000020     ti_drivers_config.obj (.bss:uartMSP432RingBuffer0)
                  2000a03c    00000010     drivers_msp432p401x.aem4f : UDMAMSP432.oem4f (.bss:hwiHandles)
                  2000a04c    0000000c     (.common:DeviceCB)
                  2000a058    0000000c     (.common:Msg)
                  2000a064    00000008     msp432p4xx_driverlib.lib : cs.o (.bss)
                  2000a06c    00000004     drivers_msp432p401x.aem4f : GPIOMSP432.oem4f (.bss)
                  2000a070    00000004     simplelink.a : cc_pal.obj (.bss)
                  2000a074    00000004     uart_term.obj (.bss)
                  2000a078    00000004     (.common:ClockP_tickPeriod)
                  2000a07c    00000004     (.common:ti_sysbios_knl_Task_Instance_State_0_hookEnv__A)
                  2000a080    00000002     (.common:radioTool_rawSocketdesc)
                  2000a082    00000001     (.common:RxIrqCnt)
                  2000a083    00000001     (.common:udmaMSP432Object)

.data      0    2000a084    00001763     UNINITIALIZED
                  2000a084    00000278     str.obj (.data)
                  2000a2fc    000001a4     network_terminal.obj (.data:gCmdList)
                  2000a4a0    00000140     drivers_msp432p401x.aem4f : PowerMSP432.oem4f (.data:PowerMSP432_perfLevels)
                  2000a5e0    000000e0     str.obj (.data:ap_start_UsageStr)
                  2000a6c0    00000097     str.obj (.data:wlanConnectUsageStr)
                  2000a757    0000008d     str.obj (.data:createFilterUsageStr)
                  2000a7e4    00000089     str.obj (.data:addProfileUsageStr)
                  2000a86d    00000003     str.obj (.data:V_optionStr)
                  2000a870    00000088     sysbios.aem4f : BIOS.obj (.data:$O1$$)
                  2000a8f8    00000087     str.obj (.data:mDNSAdvertiseUsageStr)
                  2000a97f    00000083     str.obj (.data:setPolicyUsageStr)
                  2000aa02    00000002     drivers_msp432p401x.aem4f : GPIOMSP432.oem4f (.data)
                  2000aa04    00000080     release_pem4f.oem4f (.data:ti_sysbios_knl_Swi_Module_State_0_readyQ__A)
                  2000aa84    00000080     release_pem4f.oem4f (.data:ti_sysbios_knl_Task_Module_State_0_readyQ__A)
                  2000ab04    0000007a     str.obj (.data:send_c_optionDetailsStr)
                  2000ab7e    00000070     str.obj (.data:pingUsageStr)
                  2000abee    0000005e     str.obj (.data:recv_Note_optionDetailsStr)
                  2000ac4c    0000005d     str.obj (.data:sendUsage1Str)
                  2000aca9    00000057     str.obj (.data:mDNSdQueryUsageStr)
                  2000ad00    00000054     release_pem4f.oem4f (.data:ti_sysbios_gates_GateMutex_Object__table__V)
                  2000ad54    0000004e     str.obj (.data:sendUsage2Str)
                  2000ada2    00000002     str.obj (.data:space_str)
                  2000ada4    0000004c     release_pem4f.oem4f (.data:ti_sysbios_knl_Task_Object__table__V)
                  2000adf0    00000048     str.obj (.data:enableWoWLANUsageStr)
                  2000ae38    00000044     release_pem4f.oem4f (.data:ti_sysbios_family_arm_msp432_Timer_Object__table__V)
                  2000ae7c    00000044     release_pem4f.oem4f (.data:ti_sysbios_knl_Task_Module__state__V)
                  2000aec0    00000040     str.obj (.data:DataFrames_str)
                  2000af00    0000003c     str.obj (.data:radiotoolDetailsStr)
                  2000af3c    0000003b     str.obj (.data:send_p_optionDetailsStr)
                  2000af77    00000039     str.obj (.data:send_nb_optionDetailsStr)
                  2000afb0    00000038     str.obj (.data:send_n_optionDetailsStr)
                  2000afe8    00000037     str.obj (.data:send_n_r_optionDetailsStr)
                  2000b01f    00000001     drivers_msp432p401x.aem4f : SPI.oem4f (.data)
                  2000b020    00000034     release_pem4f.oem4f (.data:ti_sysbios_family_arm_m3_Hwi_Module__state__V)
                  2000b054    00000030     str.obj (.data:MangmentFrames_str)
                  2000b084    00000030     release_pem4f.oem4f (.data:ti_sysbios_knl_Swi_Object__table__V)
                  2000b0b4    0000002d     str.obj (.data:scanUsageStr)
                  2000b0e1    00000003     str.obj (.data:a_optionStr)
                  2000b0e4    0000002c     drivers_msp432p401x.aem4f : PowerMSP432.oem4f (.data:PowerMSP432_module)
                  2000b110    0000002c     release_pem4f.oem4f (.data:ti_sysbios_knl_Clock_Module__state__V)
                  2000b13c    00000024     str.obj (.data:SetCountryCodeUsageStr)
                  2000b160    00000024     simplelink.a : eventreg.obj (.data:g_LibsEvents)
                  2000b184    00000024                  : eventreg.obj (.data:g_UserEvents)
                  2000b1a8    00000024     release_pem4f.oem4f (.data:ti_sysbios_BIOS_Module__state__V)
                  2000b1cc    00000022     str.obj (.data:send_6_optionDetailsStr)
                  2000b1ee    00000021     str.obj (.data:TriggeredRoamingEnableUsageStr)
                  2000b20f    00000001     drivers_msp432p401x.aem4f : UART.oem4f (.data)
                  2000b210    00000020     str.obj (.data:CtrlFrames_str)
                  2000b230    00000020     ti_drivers_config.obj (.data:gpioCallbackFunctions)
                  2000b250    00000020     ti_drivers_config.obj (.data:gpioPinConfigs)
                  2000b270    00000020     str.obj (.data:send_u_optionDetailsStr)
                  2000b290    00000020     release_pem4f.oem4f (.data:ti_sysbios_family_arm_msp432_Timer_Module_State_0_device__A)
                  2000b2b0    00000020     release_pem4f.oem4f (.data:xdc_runtime_Error_IgnoreBlock)
                  2000b2d0    0000001e     str.obj (.data:SoftRoamingEnableUsageStr)
                  2000b2ee    00000002     release_pem4f.oem4f (.data:ti_sysbios_family_arm_m3_Hwi_Module_State_0_excActive__A)
                  2000b2f0    0000001c     release_pem4f.oem4f (.data:ti_sysbios_knl_Swi_Module__state__V)
                  2000b30c    0000001b     str.obj (.data:getProfileUsageStr)
                  2000b327    0000001b     str.obj (.data:send_s_optionDetailsStr)
                  2000b342    0000001a     radio_tool.obj (.data:Template_Hdr)
                  2000b35c    00000018     release_pem4f.oem4f (.data:ti_sysbios_family_arm_m3_Hwi_Object__table__V)
                  2000b374    00000018     release_pem4f.oem4f (.data:ti_sysbios_heaps_HeapMem_Object__table__V)
                  2000b38c    00000014     str.obj (.data:APTransitionDisablecmdStr)
                  2000b3a0    00000014     str.obj (.data:AntSelectionDisablecmdStr)
                  2000b3b4    00000013     str.obj (.data:APTransitionEnablecmdStr)
                  2000b3c7    00000013     str.obj (.data:AntSelectionEnablecmdStr)
                  2000b3da    00000013     str.obj (.data:ConnectedStationsStr)
                  2000b3ed    00000013     str.obj (.data:SoftRoamingDisablecmdStr)
                  2000b400    00000013     str.obj (.data:TriggeredRoamingDisablecmdStr)
                  2000b413    00000013     str.obj (.data:helpUsageStr)
                  2000b426    00000012     str.obj (.data:SoftRoamingEnablecmdStr)
                  2000b438    00000012     str.obj (.data:TriggeredRoamingEnablecmdStr)
                  2000b44a    00000012     str.obj (.data:radiotool_PromptStr)
                  2000b45c    00000010     wlan_cmd.obj (.data:DataFrames)
                  2000b46c    00000010     simplelink.a : netapp.obj (.data:NetAppServiceSizeLUT)
                  2000b47c    00000010     rtsv7M4_T_le_v4SPD16_eabi.lib : tmzone.c.obj (.data:_tz)
                  2000b48c    00000010     drivers_msp432p401x.aem4f : UDMAMSP432.oem4f (.data)
                  2000b49c    00000010     release_pem4f.oem4f (.data:ti_sysbios_family_arm_msp432_Timer_Module_State_0_handles__A)
                  2000b4ac    0000000f     str.obj (.data:wlanDisconnectStr)
                  2000b4bb    0000000e     str.obj (.data:FRAME_SUBTYPE_str)
                  2000b4c9    0000000e     str.obj (.data:ap_start_str)
                  2000b4d7    0000000e     str.obj (.data:disableFilterStr)
                  2000b4e5    0000000e     str.obj (.data:mDNSAdvertiseStr)
                  2000b4f3    0000000d     str.obj (.data:ap_stop_str)
                  2000b500    0000000d     str.obj (.data:createFilterStr)
                  2000b50d    0000000d     str.obj (.data:deleteFilterStr)
                  2000b51a    0000000d     str.obj (.data:enableFilterStr)
                  2000b527    0000000d     str.obj (.data:enableWoWLANStr)
                  2000b534    0000000c     str.obj (.data:AntSelectionEnableUsageStr)
                  2000b540    0000000c     str.obj (.data:CoexDisablecmdStr)
                  2000b54c    0000000c     str.obj (.data:CoexEnableUsageStr)
                  2000b558    0000000c     str.obj (.data:ConnectedStationsUsageStr)
                  2000b564    0000000c     wlan_cmd.obj (.data:MgmtFrames)
                  2000b570    0000000c     str.obj (.data:SetCountryCodeStr)
                  2000b57c    0000000c     str.obj (.data:ap_stop_UsageStr)
                  2000b588    0000000c     simplelink.a : driver.obj (.data)
                  2000b594    0000000c     release_pem4f.oem4f (.data:ti_sysbios_family_arm_msp432_ClockFreqs_Module__state__V)
                  2000b5a0    0000000c     release_pem4f.oem4f (.data:ti_sysbios_family_arm_msp432_Timer_Module__state__V)
                  2000b5ac    0000000c     str.obj (.data:wlanConnectStr)
                  2000b5b8    0000000c     str.obj (.data:wlanDisconnectUsageStr)
                  2000b5c4    0000000b     str.obj (.data:AddProfileStr)
                  2000b5cf    0000000b     str.obj (.data:CoexEnablecmdStr)
                  2000b5da    0000000b     str.obj (.data:FRAME_TYPE_str)
                  2000b5e5    0000000b     str.obj (.data:GetProfileStr)
                  2000b5f0    0000000b     str.obj (.data:usageStr)
                  2000b5fb    0000000a     str.obj (.data:APTransitionDisableUsageStr)
                  2000b605    0000000a     str.obj (.data:APTransitionEnableUsageStr)
                  2000b60f    0000000a     str.obj (.data:AntSelectionDisableUsageStr)
                  2000b619    0000000a     str.obj (.data:CoexDisableUsageStr)
                  2000b623    0000000a     str.obj (.data:SoftRoamingDisableUsageStr)
                  2000b62d    0000000a     str.obj (.data:TriggeredRoamingDisableUsageStr)
                  2000b637    0000000a     str.obj (.data:WPA2_PLUS_str)
                  2000b641    0000000a     str.obj (.data:mDNSQueryStr)
                  2000b64b    0000000a     str.obj (.data:radiotool_Str)
                  2000b655    0000000a     str.obj (.data:setPolicyStr)
                  2000b65f    00000009     str.obj (.data:WPAWPA2_str)
                  2000b668    00000009     str.obj (.data:p2pStartcmdStr)
                  2000b671    00000003     str.obj (.data:c_optionStr)
                  2000b674    00000008     rtsv7M4_T_le_v4SPD16_eabi.lib : _lock.c.obj (.data:$O1$$)
                  2000b67c    00000008     wlan_cmd.obj (.data:CtrlFrames)
                  2000b684    00000008     str.obj (.data:PATTERN_str)
                  2000b68c    00000008     network_terminal.obj (.data)
                  2000b694    00000008     str.obj (.data:p2pStopcmdStr)
                  2000b69c    00000008     simplelink.a : cc_pal.obj (.data)
                  2000b6a4    00000008     release_pem4f.oem4f (.data:ti_sysbios_family_arm_m3_Hwi_Module__root__V)
                  2000b6ac    00000008     release_pem4f.oem4f (.data:ti_sysbios_gates_GateHwi_Module__root__V)
                  2000b6b4    00000008     release_pem4f.oem4f (.data:ti_sysbios_gates_GateMutex_Module__root__V)
                  2000b6bc    00000008     release_pem4f.oem4f (.data:ti_sysbios_heaps_HeapMem_Module__root__V)
                  2000b6c4    00000008     release_pem4f.oem4f (.data:ti_sysbios_knl_Clock_Module__root__V)
                  2000b6cc    00000008     release_pem4f.oem4f (.data:ti_sysbios_knl_Queue_Module__root__V)
                  2000b6d4    00000008     release_pem4f.oem4f (.data:ti_sysbios_knl_Semaphore_Module__root__V)
                  2000b6dc    00000008     release_pem4f.oem4f (.data:ti_sysbios_knl_Task_Module__root__V)
                  2000b6e4    00000008     release_pem4f.oem4f (.data:xdc_runtime_Startup_Module__state__V)
                  2000b6ec    00000008     release_pem4f.oem4f (.data:xdc_runtime_System_Module_State_0_atexitHandlers__A)
                  2000b6f4    00000008     release_pem4f.oem4f (.data:xdc_runtime_System_Module__state__V)
                  2000b6fc    00000006     str.obj (.data:BSSID_str)
                  2000b702    00000006     str.obj (.data:DESTINATION_MAC_str)
                  2000b708    00000006     str.obj (.data:SOURCE_MAC_str)
                  2000b70e    00000006     str.obj (.data:clearStr)
                  2000b714    00000006     str.obj (.data:cmdPromptStr)
                  2000b71a    00000006     str.obj (.data:help_optionStr)
                  2000b720    00000005     str.obj (.data:D_IP_str)
                  2000b725    00000005     str.obj (.data:OPEN_str)
                  2000b72a    00000005     str.obj (.data:S_IP_str)
                  2000b72f    00000005     str.obj (.data:WPA2_str)
                  2000b734    00000005     str.obj (.data:WPA3_str)
                  2000b739    00000005     str.obj (.data:dns_optionStr)
                  2000b73e    00000005     str.obj (.data:ent_optionStr)
                  2000b743    00000005     str.obj (.data:helpStr)
                  2000b748    00000005     str.obj (.data:mac_optionStr)
                  2000b74d    00000005     str.obj (.data:pingStr)
                  2000b752    00000005     str.obj (.data:recvStr)
                  2000b757    00000005     str.obj (.data:scanStr)
                  2000b75c    00000005     str.obj (.data:sendStr)
                  2000b761    00000005     str.obj (.data:ttl_optionStr)
                  2000b766    00000005     str.obj (.data:txpow_optionStr)
                  2000b76b    00000004     str.obj (.data:WEP_str)
                  2000b76f    00000004     str.obj (.data:WPA_str)
                  2000b773    00000004     str.obj (.data:WPS_str)
                  2000b777    00000004     str.obj (.data:ext_optionStr)
                  2000b77b    00000004     str.obj (.data:gw_optionStr)
                  2000b77f    00000004     str.obj (.data:ip_optionStr)
                  2000b783    00000004     str.obj (.data:nb_optionStr)
                  2000b787    00000004     str.obj (.data:priority_optionStr)
                  2000b78b    00000001     --HOLE--
                  2000b78c    00000004     rtsv7M4_T_le_v4SPD16_eabi.lib : stkdepth_vars.c.obj (.data)
                  2000b790    00000004                                   : strtok.c.obj (.data)
                  2000b794    00000004     str.obj (.data:so_optionStr)
                  2000b798    00000004     str.obj (.data:st_optionStr)
                  2000b79c    00000004     release_pem4f.oem4f (.data:ti_sysbios_family_arm_m3_Hwi_Module_State_0_excContext__A)
                  2000b7a0    00000004     release_pem4f.oem4f (.data:ti_sysbios_family_arm_m3_Hwi_Module_State_0_excStack__A)
                  2000b7a4    00000004     release_pem4f.oem4f (.data:ti_sysbios_gates_GateHwi_Object__table__V)
                  2000b7a8    00000004     release_pem4f.oem4f (.data:ti_sysbios_knl_Task_Module_State_0_idleTask__A)
                  2000b7ac    00000004     release_pem4f.oem4f (.data:ti_sysbios_rts_ti_ReentSupport_Module__state__V)
                  2000b7b0    00000004     release_pem4f.oem4f (.data:xdc_runtime_Memory_Module__state__V)
                  2000b7b4    00000003     str.obj (.data:d_optionStr)
                  2000b7b7    00000003     str.obj (.data:e_optionStr)
                  2000b7ba    00000003     str.obj (.data:f_optionStr)
                  2000b7bd    00000003     str.obj (.data:g_optionStr)
                  2000b7c0    00000003     str.obj (.data:h_optionStr)
                  2000b7c3    00000003     str.obj (.data:i_optionStr)
                  2000b7c6    00000003     str.obj (.data:l_optionStr)
                  2000b7c9    00000003     str.obj (.data:lineBreak)
                  2000b7cc    00000003     str.obj (.data:m_optionStr)
                  2000b7cf    00000003     str.obj (.data:n_optionStr)
                  2000b7d2    00000003     str.obj (.data:o_optionStr)
                  2000b7d5    00000003     str.obj (.data:p_optionStr)
                  2000b7d8    00000003     str.obj (.data:r_optionStr)
                  2000b7db    00000003     str.obj (.data:s_optionStr)
                  2000b7de    00000003     str.obj (.data:t_optionStr)
                  2000b7e1    00000003     str.obj (.data:u_optionStr)
                  2000b7e4    00000003     str.obj (.data:v_optionStr)

.priheap   0    20000140    00008000     UNINITIALIZED
                  20000140    00008000     --HOLE--

.stack     0    2000fc00    00000400     UNINITIALIZED
                  2000fc00    00000400     --HOLE--

.bootVecs 
*          0    00000000    00000008     DSECT
                  00000000    00000008     boot.aem4f : boot.oem4f (.bootVecs)

.resetVecs 
*          0    00000000    0000003c     
                  00000000    0000003c     release_pem4f.oem4f (.resetVecs)

.vecs      0    20000000    00000140     NOLOAD SECTION
                  20000000    00000140     release_pem4f.oem4f (.vecs)

xdc.meta   0    00000000    000000f1     COPY SECTION
                  00000000    000000f1     release_pem4f.oem4f (xdc.meta)

xdc.noload 
*          0    00000000    00000000     COPY SECTION

__llvm_prf_cnts 
*          0    20000000    00000000     UNINITIALIZED

.binit     0    00000000    00000000     

MODULE SUMMARY

       Module                           code     ro data   rw data
       ------                           ----     -------   -------
    .\
       wlan_cmd.obj                     18939    116       72     
       str.obj                          48       10080     7492   
       cmd_parser.obj                   15426    4         0      
       network_terminal.obj             7437     28        5264   
       transceiver_cmd.obj              8140     76        0      
       radio_tool.obj                   1410     8         6056   
       socket_cmd.obj                   7210     0         0      
       netapp_cmd.obj                   3124     1184      0      
       ti_drivers_config.obj            42       286       1106   
       uart_term.obj                    568      0         8      
       main_tirtos.obj                  104      0         0      
       ti_drivers_net_wifi_config.obj   0        52        0      
    +--+--------------------------------+--------+---------+---------+
       Total:                           62448    11834     19998  
                                                                  
    C:\CCSworkspace\tirtos_builds_MSP_EXP432P401R_release_ccs\Debug\configPkg\package\cfg\
       release_pem4f.oem4f              1742     1093      4364   
    +--+--------------------------------+--------+---------+---------+
       Total:                           1742     1093      4364   
                                                                  
    C:/ti/simplelink_msp432p4_sdk_3_40_01_02/kernel/tirtos/packages/ti/dpl/lib/dpl_msp432p401x.aem4f
       ClockP_tirtos.oem4f              146      0         8      
       SemaphoreP_tirtos.oem4f          146      0         0      
       PowerMSP432_tirtos.oem4f         122      0         0      
       HwiP_tirtos.oem4f                108      0         0      
    +--+--------------------------------+--------+---------+---------+
       Total:                           522      0         8      
                                                                  
    C:/ti/simplelink_msp432p4_sdk_3_40_01_02/source/ti/devices/msp432p4xx/driverlib/ccs/msp432p4xx_driverlib.lib
       pcm.o                            1770     0         0      
       cs.o                             704      0         16     
       spi.o                            328      0         0      
       uart.o                           284      0         0      
       dma.o                            240      0         0      
       sysctl_a.o                       64       0         0      
       rtc_c.o                          44       0         0      
       wdt_a.o                          36       0         0      
       cpu.o                            28       0         0      
       sysctl.o                         16       0         0      
    +--+--------------------------------+--------+---------+---------+
       Total:                           3514     0         16     
                                                                  
    C:/ti/simplelink_msp432p4_sdk_3_40_01_02/source/ti/drivers/lib/drivers_msp432p401x.aem4f
       UARTMSP432.oem4f                 3406     81        0      
       PowerMSP432.oem4f                2228     0         728    
       SPIMSP432DMA.oem4f               1894     32        0      
       GPIOMSP432.oem4f                 984      12        108    
       UDMAMSP432.oem4f                 900      0         192    
       UART.oem4f                       186      36        2      
       SPI.oem4f                        172      32        2      
       RingBuf.oem4f                    184      0         0      
       List.oem4f                       76       0         0      
    +--+--------------------------------+--------+---------+---------+
       Total:                           10030    193       1032   
                                                                  
    C:/ti/simplelink_sdk_wifi_plugin_4_20_00_10/source/ti/drivers/net/wifi/ccs/rtos/simplelink.a
       driver.obj                       12416    280       2154   
       sl_socket.obj                    4832     48        24     
       netapp.obj                       3822     44        32     
       wlan.obj                         3316     52        0      
       device.obj                       1850     64        24     
       cc_pal.obj                       916      0         24     
       eventreg.obj                     656      0         144    
       wlanconfig.obj                   676      0         0      
       spawn.obj                        264      0         80     
       netcfg.obj                       324      8         0      
       netutil.obj                      180      0         0      
       flowcont.obj                     40       0         0      
    +--+--------------------------------+--------+---------+---------+
       Total:                           29292    496       2482   
                                                                  
    C:\CCSworkspace\tirtos_builds_MSP_EXP432P401R_release_ccs\src\sysbios\sysbios.aem4f
       BIOS.obj                         10232    0         272    
       m3_Hwi_asm.obj                   318      0         0      
       m3_TaskSupport_asm.obj           180      0         0      
       m3_Hwi_asm_switch.obj            118      0         0      
    +--+--------------------------------+--------+---------+---------+
       Total:                           10848    0         272    
                                                                  
    C:\ti\ccs1030\ccs\tools\compiler\ti-cgt-arm_20.2.4.LTS\lib\rtsv7M4_T_le_v4SPD16_eabi.lib
       _printfi.c.obj                   4851     0         0      
       mktime.c.obj                     672      96        0      
       fd_add_t2.asm.obj                438      0         0      
       fd_div_t2.asm.obj                310      0         0      
       strtol.c.obj                     304      0         0      
       s_scalbn.c.obj                   272      0         0      
       strtoul.c.obj                    272      0         0      
       fd_cmp_t2.asm.obj                268      0         0      
       ctype.c.obj                      0        257       0      
       fd_mul_t2.asm.obj                252      0         0      
       memcpy_t2.asm.obj                156      0         0      
       ull_div_t2.asm.obj               150      0         0      
       vsnprintf.c.obj                  136      0         0      
       memset_t2.asm.obj                122      0         0      
       ll_div_t2.asm.obj                110      0         0      
       copy_decompress_lzss.c.obj       104      0         0      
       s_frexp.c.obj                    100      0         0      
       _ltoa.c.obj                      84       0         0      
       atoi.c.obj                       76       0         0      
       atol.c.obj                       76       0         0      
       cpy_tbl.c.obj                    76       0         0      
       fd_toi_t2.asm.obj                72       0         0      
       strtok.c.obj                     64       0         8      
       strncpy.c.obj                    54       0         0      
       strstr.c.obj                     52       0         0      
       i_tofd_t2.asm.obj                46       0         0      
       _lock.c.obj                      26       0         16     
       strspn.c.obj                     42       0         0      
       strcspn.c.obj                    36       0         0      
       tmzone.c.obj                     0        0         32     
       strcat.c.obj                     30       0         0      
       memccpy.c.obj                    28       0         0      
       s_copysign.c.obj                 26       0         0      
       args_main.c.obj                  24       0         0      
       strcmp.c.obj                     24       0         0      
       strchr.c.obj                     22       0         0      
       strcpy.c.obj                     20       0         0      
       strlen.c.obj                     20       0         0      
       wcslen.c.obj                     18       0         0      
       copy_decompress_none.c.obj       14       0         0      
       copy_zero_init.c.obj             12       0         0      
       stkdepth_vars.c.obj              0        0         8      
       div0.asm.obj                     2        0         0      
    +--+--------------------------------+--------+---------+---------+
       Total:                           9461     353       64     
                                                                  
    C:\ti\simplelink_msp432p4_sdk_3_40_01_02\kernel\tirtos\packages\ti\targets\arm\rtsarm\lib\auto_init.aem4f
       auto_init.oem4f                  160      0         0      
    +--+--------------------------------+--------+---------+---------+
       Total:                           160      0         0      
                                                                  
    C:\ti\simplelink_msp432p4_sdk_3_40_01_02\kernel\tirtos\packages\ti\targets\arm\rtsarm\lib\boot.aem4f
       boot.oem4f                       88       0         0      
    +--+--------------------------------+--------+---------+---------+
       Total:                           88       0         0      
                                                                  
       Stack:                           0        0         2048   
       Linker Generated:                0        3435      0      
    +--+--------------------------------+--------+---------+---------+
       Grand Total:                     128105   17404     30284  


LINKER GENERATED COPY TABLES

__TI_cinit_table @ 000239c0 records: 2, size/record: 8, table size: 16
	.data: load addr=00022c60, load size=00000d47 bytes, run addr=2000a084, run size=00001763 bytes, compression=lzss
	.bss: load addr=000239b8, load size=00000008 bytes, run addr=20008200, run size=00001e84 bytes, compression=zero_init


LINKER GENERATED HANDLER TABLE

__TI_handler_table @ 000239a8 records: 3, size/record: 4, table size: 12
	index: 0, handler: __TI_decompress_lzss
	index: 1, handler: __TI_decompress_none
	index: 2, handler: __TI_zero_init


GLOBAL SYMBOLS: SORTED ALPHABETICALLY BY Name 

address   name                                                            
-------   ----                                                            
2000a2f8  APTransitionDisableDetailsStr                                   
2000b5fb  APTransitionDisableUsageStr                                     
2000b38c  APTransitionDisablecmdStr                                       
2000a2f4  APTransitionEnableDetailsStr                                    
2000b605  APTransitionEnableUsageStr                                      
2000b3b4  APTransitionEnablecmdStr                                        
2000b5c4  AddProfileStr                                                   
2000a2b8  AntSelectionDisableDetailsStr                                   
2000b60f  AntSelectionDisableUsageStr                                     
2000b3a0  AntSelectionDisablecmdStr                                       
2000a2b0  AntSelectionEnableDetailsStr                                    
2000b534  AntSelectionEnableUsageStr                                      
2000a2b4  AntSelectionEnable_Note_optionDetailsStr                        
2000b3c7  AntSelectionEnablecmdStr                                        
2000b6fc  BSSID_str                                                       
0001f2e7  Board_init                                                      
00002997  Board_initHook                                                  
00022ac8  Button_count                                                    
0001f2f3  CPU_cpsid                                                       
0001f2ff  CPU_cpsie                                                       
000128c5  CPU_wfi                                                         
0001e7ed  CS_setExternalClockSourceFrequency                              
00015135  CS_startHFXTWithTimeout                                         
00015219  CS_startLFXTWithTimeout                                         
0001677d  CheckSubFrameType                                               
0001efa5  ClearTerm                                                       
0001f485  ClockP_Params_init                                              
0001c1e1  ClockP_create                                                   
0001f30b  ClockP_delete                                                   
0001f319  ClockP_getSystemTickPeriod                                      
0001f419  ClockP_getSystemTicks                                           
000140bd  ClockP_setTimeout                                               
00014e65  ClockP_start                                                    
00016535  ClockP_stop                                                     
2000a078  ClockP_tickPeriod                                               
0001eeb1  ClockP_usleep                                                   
2000a2c4  CoexDisableDetailsStr                                           
2000b619  CoexDisableUsageStr                                             
2000b540  CoexDisablecmdStr                                               
2000a2bc  CoexEnableDetailsStr                                            
2000b54c  CoexEnableUsageStr                                              
2000a2c0  CoexEnable_Note_optionDetailsStr                                
2000b5cf  CoexEnablecmdStr                                                
2000a0fc  ConnectedStationsDetailsStr                                     
2000b3da  ConnectedStationsStr                                            
2000b558  ConnectedStationsUsageStr                                       
2000a2c8  CountryCodeDetailsStr                                           
2000a2d0  CountryCode_Note_optionDetailsStr                               
2000a2cc  CountryCode_g_optionDetailsStr                                  
2000b67c  CtrlFrames                                                      
2000b210  CtrlFrames_str                                                  
2000b702  DESTINATION_MAC_str                                             
00014c85  DMA_setChannelTransfer                                          
2000b720  D_IP_str                                                        
2000b45c  DataFrames                                                      
2000aec0  DataFrames_str                                                  
2000a04c  DeviceCB                                                        
000095a1  DisplayAppBanner                                                
00022ac4  Display_count                                                   
0001ec41  EUSCI_A_SPI_getInterruptStatus                                  
0001ec59  EUSCI_B_SPI_getInterruptStatus                                  
2000b4bb  FRAME_SUBTYPE_str                                               
2000b5da  FRAME_TYPE_str                                                  
0001a301  FreeConnectCmd                                                  
0001eba5  FreePingCmd                                                     
0001ac6d  FreeProfileCmd                                                  
0001ebbf  FreeRecvCmd                                                     
0001ebd9  FreeSendCmd                                                     
0001df69  FreeStartApCmd                                                  
0001df97  FreemDNSAdvertiseCmd                                            
000229d4  GPIOMSP432_config                                               
0001da35  GPIO_clearInt                                                   
0001da69  GPIO_disableInt                                                 
0001da9d  GPIO_enableInt                                                  
0001acd9  GPIO_hwiIntFxn                                                  
000179fd  GPIO_init                                                       
0001b41d  GPIO_setCallback                                                
00010b11  GPIO_setConfig                                                  
0001bbc9  GPIO_write                                                      
0001582d  GetCmd                                                          
2000b5e5  GetProfileStr                                                   
20009fb0  GlobalLockObj                                                   
00008000  HEAPSIZE                                                        
0001dba5  HostIrqGPIO_callback                                            
0001f05f  HwiP_Params_init                                                
00017cad  HwiP_clearInterrupt                                             
0001d101  HwiP_create                                                     
0001f325  HwiP_delete                                                     
000180ad  HwiP_disable                                                    
00018535  HwiP_disableInterrupt                                           
00018e55  HwiP_enableInterrupt                                            
0001f571  HwiP_restore                                                    
0001b601  InitTerm                                                        
0001e509  List_put                                                        
0001e52f  List_remove                                                     
2000b054  MangmentFrames_str                                              
0001e9ad  Message                                                         
2000b564  MgmtFrames                                                      
2000a058  Msg                                                             
0001dfc5  Mutex_create_handle                                             
00007597  NwpMaskInterrupt                                                
0001e9c9  NwpPowerOff                                                     
0001e9e5  NwpPowerOn                                                      
0001aa4d  NwpRegisterInterruptHandler                                     
0000c503  NwpUnMaskInterrupt                                              
2000b725  OPEN_str                                                        
000222f2  OpcodeTranslateTable                                            
2000b684  PATTERN_str                                                     
0001b5a1  PCM_getCoreVoltageLevel                                         
0001bb6d  PCM_getPowerMode                                                
0001eec5  PCM_getPowerState                                               
0001e375  PCM_gotoLPM0                                                    
00019cd1  PCM_gotoLPM3                                                    
0001f06f  PCM_gotoLPM4                                                    
0001f07f  PCM_setPowerMode                                                
0001f08f  PCM_setPowerState                                               
0001bf91  PCM_shutdownDevice                                              
00016471  ParseCmd                                                        
00005fd1  ParseConnectCmd                                                 
00010f61  ParseCountycodeCmd                                              
000012a9  ParseCreateFilterCmd                                            
0000d87d  ParseEnableWoWLANCmd                                            
00007599  ParsePingCmd                                                    
00006d35  ParseProfileCmd                                                 
000046a1  ParseRecvCmd                                                    
00012b25  ParseScanCmd                                                    
00005625  ParseSendCmd                                                    
0000d165  ParseSetPolicyCmd                                               
000141c5  ParseSoftRoamingEnableCmd                                       
00004061  ParseStartApCmd                                                 
00011ca9  ParseTriggeredRoamingEnableCmd                                  
00014d75  ParsegetProfileCmd                                              
0000ad05  ParsemDNSAdvertiseCmd                                           
00010679  ParsemDNSQueryCmd                                               
000224dc  PowerMSP432_config                                              
0001ad41  PowerMSP432_getFreqs                                            
0001f0a1  PowerMSP432_getNumPerfLevels                                    
0000efdb  PowerMSP432_initPolicy                                          
2000b0e4  PowerMSP432_module                                              
2000a4a0  PowerMSP432_perfLevels                                          
0001c551  PowerMSP432_sleepPolicy                                         
0001e083  PowerMSP432_updateFreqs                                         
0001f0b1  Power_disablePolicy                                             
0001f0c1  Power_enablePolicy                                              
0001f331  Power_getConstraintMask                                         
0001f33d  Power_getPerformanceLevel                                       
0001eed9  Power_idleFunc                                                  
00018905  Power_init                                                      
0001e39d  Power_registerNotify                                            
0001c98d  Power_releaseConstraint                                         
0001d91d  Power_setConstraint                                             
00009eb9  Power_sleep                                                     
0001e80d  Power_unregisterNotify                                          
000170e9  PrintIPAddress                                                  
0001e0b1  RTC_C_holdClock                                                 
00018159  Report                                                          
0001efb7  RingBuf_construct                                               
0001d141  RingBuf_get                                                     
0001e82d  RingBuf_peek                                                    
0001cdc9  RingBuf_put                                                     
2000a082  RxIrqCnt                                                        
00005121  RxTask                                                          
20008a9c  Rx_frame                                                        
2000a288  RxtaskDetailsStr                                                
2000a28c  Rxtask_c_optionDetailsStr                                       
2000a290  Rxtask_d_optionDetailsStr                                       
2000a294  Rxtask_s_optionDetailsStr                                       
UNDEFED   SHT$$INIT_ARRAY$$Base                                           
UNDEFED   SHT$$INIT_ARRAY$$Limit                                          
2000b708  SOURCE_MAC_str                                                  
0001b14f  SPIMSP432DMA_close                                              
0001b1b3  SPIMSP432DMA_control                                            
00022894  SPIMSP432DMA_fxnTable                                           
00019015  SPIMSP432DMA_init                                               
0000bfed  SPIMSP432DMA_open                                               
000129f9  SPIMSP432DMA_transfer                                           
00013db1  SPIMSP432DMA_transferCancel                                     
0001eeed  SPI_Params_init                                                 
0001f48f  SPI_close                                                       
00022a0c  SPI_config                                                      
00022ac5  SPI_count                                                       
00022734  SPI_defaultParams                                               
0001e3c5  SPI_getInterruptStatus                                          
0001ce59  SPI_init                                                        
0001773b  SPI_initMaster                                                  
0001d181  SPI_open                                                        
0001f499  SPI_transfer                                                    
2000b72a  S_IP_str                                                        
0001f511  SemaphoreP_Params_init                                          
0001d641  SemaphoreP_create                                               
0001e0dd  SemaphoreP_createBinary                                         
0001f349  SemaphoreP_delete                                               
0001efc9  SemaphoreP_pend                                                 
000190ad  SemaphoreP_post                                                 
00018c99  Semaphore_pend_handle                                           
2000b570  SetCountryCodeStr                                               
2000b13c  SetCountryCodeUsageStr                                          
0000efdd  SimpleLinkFatalErrorEventHandler                                
0001ce11  SimpleLinkGeneralEventHandler                                   
0001f355  SimpleLinkHttpServerEventHandler                                
0000a1b1  SimpleLinkNetAppEventHandler                                    
0001f361  SimpleLinkNetAppRequestEventHandler                             
0001f4a3  SimpleLinkNetAppRequestMemFreeEventHandler                      
000149a9  SimpleLinkPingReport                                            
0001f4ad  SimpleLinkSockEventHandler                                      
00022514  SimpleLinkWifiCC32XX_config                                     
00003281  SimpleLinkWlanEventHandler                                      
2000a2ac  SoftRoamingDisableDetailsStr                                    
2000b623  SoftRoamingDisableUsageStr                                      
2000b3ed  SoftRoamingDisablecmdStr                                        
2000a2a0  SoftRoamingEnableDetailsStr                                     
2000b2d0  SoftRoamingEnableUsageStr                                       
2000a2a8  SoftRoamingEnable_Note_optionDetailsStr                         
2000a2a4  SoftRoamingEnable_r_optionDetailsStr                            
2000b426  SoftRoamingEnablecmdStr                                         
0001ec71  SysCtl_A_disableNMISource                                       
0001ec89  SysCtl_A_enableNMISource                                        
0001f0d1  SysCtl_A_getNMISourceStatus                                     
0001f0e1  SysCtl_getNMISourceStatus                                       
00007175  TCPClient                                                       
00004c19  TCPServer                                                       
2000b342  Template_Hdr                                                    
0001f519  TimerGetCurrentTimestamp                                        
00022ac6  Timer_count                                                     
2000a2f0  TriggeredRoamingDisableDetailsStr                               
2000b62d  TriggeredRoamingDisableUsageStr                                 
2000b400  TriggeredRoamingDisablecmdStr                                   
2000a2e8  TriggeredRoamingEnableDetailsStr                                
2000b1ee  TriggeredRoamingEnableUsageStr                                  
2000b438  TriggeredRoamingEnablecmdStr                                    
2000a2ec  TriggeredRoaming_r_optionDetailsStr                             
00000041  TxTask                                                          
20009078  Tx_frame                                                        
2000a1b0  TxtaskDetailsStr                                                
2000a268  Txtask_a_optionDetailsStr                                       
2000a1c8  Txtask_c_optionDetailsStr                                       
2000a260  Txtask_cca_optionDetailsStr                                     
2000a248  Txtask_d_optionDetailsStr                                       
2000a250  Txtask_dp0_optionDetailsStr                                     
2000a254  Txtask_dp1_optionDetailsStr                                     
2000a258  Txtask_dp2_optionDetailsStr                                     
2000a25c  Txtask_dp3_optionDetailsStr                                     
2000a24c  Txtask_dp_optionDetailsStr                                      
2000a1f4  Txtask_m10_optionDetailsStr                                     
2000a1f8  Txtask_m11_optionDetailsStr                                     
2000a1fc  Txtask_m12_optionDetailsStr                                     
2000a200  Txtask_m13_optionDetailsStr                                     
2000a204  Txtask_m14_optionDetailsStr                                     
2000a208  Txtask_m15_optionDetailsStr                                     
2000a20c  Txtask_m16_optionDetailsStr                                     
2000a210  Txtask_m17_optionDetailsStr                                     
2000a214  Txtask_m18_optionDetailsStr                                     
2000a218  Txtask_m19_optionDetailsStr                                     
2000a1d0  Txtask_m1_optionDetailsStr                                      
2000a21c  Txtask_m20_optionDetailsStr                                     
2000a220  Txtask_m21_optionDetailsStr                                     
2000a1d4  Txtask_m2_optionDetailsStr                                      
2000a1d8  Txtask_m3_optionDetailsStr                                      
2000a1dc  Txtask_m4_optionDetailsStr                                      
2000a1e0  Txtask_m5_optionDetailsStr                                      
2000a1e4  Txtask_m6_optionDetailsStr                                      
2000a1e8  Txtask_m7_optionDetailsStr                                      
2000a1ec  Txtask_m8_optionDetailsStr                                      
2000a1f0  Txtask_m9_optionDetailsStr                                      
2000a1cc  Txtask_m_optionDetailsStr                                       
2000a230  Txtask_p0_optionDetailsStr                                      
2000a234  Txtask_p1_optionDetailsStr                                      
2000a238  Txtask_p2_optionDetailsStr                                      
2000a23c  Txtask_p3_optionDetailsStr                                      
2000a240  Txtask_p4_optionDetailsStr                                      
2000a22c  Txtask_p_optionDetailsStr                                       
2000a264  Txtask_s_optionDetailsStr                                       
2000a1c4  Txtask_t_optionDetailsStr                                       
2000a244  Txtask_tone_optionDetailsStr                                    
2000a1b8  Txtask_tx1_optionDetailsStr                                     
2000a1bc  Txtask_tx2_optionDetailsStr                                     
2000a1c0  Txtask_tx3_optionDetailsStr                                     
2000a1b4  Txtask_tx_optionDetailsStr                                      
2000a228  Txtask_txp0_optionDetailsStr                                    
2000a224  Txtask_txp_optionDetailsStr                                     
00019145  UARTMSP432_close                                                
0001719d  UARTMSP432_control                                              
000225a4  UARTMSP432_fxnTable                                             
000163a5  UARTMSP432_hwiIntFxn                                            
0000fc7f  UARTMSP432_init                                                 
0000a765  UARTMSP432_open                                                 
0001d1c1  UARTMSP432_read                                                 
0001d9c9  UARTMSP432_readCancel                                           
00015599  UARTMSP432_readPolling                                          
00017eb3  UARTMSP432_write                                                
0001a741  UARTMSP432_writeCancel                                          
00017251  UARTMSP432_writePolling                                         
0001eca1  UART_Params_init                                                
00022a18  UART_config                                                     
0001f4b7  UART_control                                                    
00022ac7  UART_count                                                      
000225f4  UART_defaultParams                                              
0001ce9d  UART_init                                                       
00012fb9  UART_initModule                                                 
0001d201  UART_open                                                       
0001f4c1  UART_readPolling                                                
0001f4cb  UART_writePolling                                               
00015675  UDMAMSP432_close                                                
00022a70  UDMAMSP432_config                                               
00018d2d  UDMAMSP432_init                                                 
00018dc1  UDMAMSP432_open                                                 
0000798d  UDPClient                                                       
00006455  UDPServer                                                       
2000a86d  V_optionStr                                                     
4000480c  WDTCTL_SYM                                                      
0001e57d  WDT_A_holdTimer                                                 
2000b76b  WEP_str                                                         
2000b637  WPA2_PLUS_str                                                   
2000b72f  WPA2_str                                                        
2000b734  WPA3_str                                                        
2000b65f  WPAWPA2_str                                                     
2000b76f  WPA_str                                                         
2000b773  WPS_str                                                         
00022af0  WiFi_config                                                     
00022ac9  WiFi_count                                                      
0001ea01  WiFi_init                                                       
000223c4  _SlActionLookupTable                                            
00013eb5  _SlDeviceEventHandler                                           
0001c9d5  _SlDeviceFatalErrorEvtHdlr                                      
0001ca1d  _SlDeviceGeneralEvtHdlr                                         
00015905  _SlDeviceHandleAsync_InitComplete                               
00019269  _SlDeviceHandleAsync_Stop                                       
0001aab9  _SlDeviceHandleResetRequestInternally                           
0001f36d  _SlDeviceResetRequestInitCompletedCB                            
0001ca65  _SlDrvBasicCmd                                                  
00013fb9  _SlDrvCmdOp                                                     
0001a7b1  _SlDrvCmdSend_noLock                                            
0001c281  _SlDrvCmdSend_noWait                                            
0000d3c5  _SlDrvDataReadOp                                                
0000e5e9  _SlDrvDataWriteOp                                               
0001f0f1  _SlDrvDispatchHttpServerEvents                                  
0001f101  _SlDrvDispatchNetAppRequestEvents                               
00015c61  _SlDrvDriverCBDeinit                                            
00010331  _SlDrvDriverCBInit                                              
000195c9  _SlDrvDriverIsApiAllowed                                        
0001dbd5  _SlDrvGlobalObjUnLock                                           
00017305  _SlDrvHandleFatalError                                          
0001e5a1  _SlDrvIsApiInProgress                                           
0001f111  _SlDrvIsSpawnOwnGlobalLock                                      
000181ff  _SlDrvIsTimeoutExpired                                          
0001ee39  _SlDrvMemZero                                                   
00011b69  _SlDrvMsgReadSpawnCtx                                           
000142c5  _SlDrvObjGlobalLockWaitForever                                  
0001f251  _SlDrvObjLockWaitForever                                        
0001f25f  _SlDrvObjUnLock                                                 
00019655  _SlDrvProtectAsyncRespSetting                                   
0001ecb9  _SlDrvProtectionObjLockWaitForever                              
0001ecd1  _SlDrvProtectionObjUnLock                                       
000104d5  _SlDrvReleaseAllActivePendingPoolObj                            
000098b1  _SlDrvReleasePoolObj                                            
0001f26d  _SlDrvResetCmdExt                                               
0001cee1  _SlDrvRxIrqHandler                                              
0001e5c5  _SlDrvStartMeasureTimeout                                       
0001f27b  _SlDrvSyncObjSignal                                             
0001e109  _SlDrvSyncObjWaitForever                                        
0001caad  _SlDrvSyncObjWaitTimeout                                        
000159dd  _SlDrvWaitForInternalAsyncEvent                                 
0000aa35  _SlDrvWaitForPoolObj                                            
0001d241  _SlFindAndReleasePendingCmd                                     
0001e3ed  _SlFlowContSet                                                  
0001ea39  _SlInternalIsItSpawnThread                                      
0001b65d  _SlInternalSpawn                                                
0001c321  _SlInternalSpawnTaskEntry                                       
0001d281  _SlInternalSpawnWaitForEvent                                    
0001d2c1  _SlIsEventRegistered                                            
0000ede9  _SlNetAppEventHandler                                           
0001caf5  _SlNetAppEvtHdlr                                                
00016b29  _SlNetAppHandleAsync_DnsGetHostByName                           
0001330d  _SlNetAppHandleAsync_DnsGetHostByService                        
00015ab5  _SlNetAppHandleAsync_NetAppReceive                              
00016be1  _SlNetAppHandleAsync_PingResponse                               
0001c371  _SlNetAppHttpServerHdlr                                         
00015e01  _SlNetAppMDNSRegisterUnregisterService                          
0001c3c1  _SlNetAppRequestHdlr                                            
0001cb3d  _SlNetAppRequestMemFree                                         
00016839  _SlNetAppSendResponse                                           
00022b14  _SlNetAppSendResponseCmdCtrl                                    
0001ab25  _SlNetAppSendTokenValue                                         
00022b18  _SlNetAppSendTokenValueCmdCtrl                                  
000173b9  _SlNetUtilHandleAsync_Cmd                                       
00022b3c  _SlProvisioningCmdCtrl                                          
0001cb85  _SlSockEvtHdlr                                                  
000192f9  _SlSocketHandleAsync_Accept                                     
00017aa9  _SlSocketHandleAsync_Close                                      
00017b55  _SlSocketHandleAsync_Connect                                    
00005b15  _SlSocketHandleAsync_Select                                     
0001ada9  _SlSpawnMsgListGetCount                                         
00011f21  _SlSpawnMsgListInsert                                           
00018725  _SlSpawnMsgListProcess                                          
0001cbcd  _SlWlanEvtHdlr                                                  
00000000  __ASM__                                                         
00000072  __ISA__                                                         
00000085  __PLAT__                                                        
20010000  __STACK_END                                                     
00000400  __STACK_SIZE                                                    
000000a8  __TARG__                                                        
000239c0  __TI_CINIT_Base                                                 
000239d0  __TI_CINIT_Limit                                                
000239a8  __TI_Handler_Table_Base                                         
000239b4  __TI_Handler_Table_Limit                                        
000187c5  __TI_auto_init                                                  
0001ae11  __TI_decompress_lzss                                            
0001f289  __TI_decompress_none                                            
0001bfe5  __TI_ltoa                                                       
ffffffff  __TI_pprof_out_hndl                                             
00001f49  __TI_printfi                                                    
ffffffff  __TI_prof_data_size                                             
ffffffff  __TI_prof_data_start                                            
00022c60  __TI_static_base__                                              
0001f39d  __TI_zero_init                                                  
000000ce  __TRDR__                                                        
00019ab5  __aeabi_cdcmpeq                                                 
00019ab5  __aeabi_cdcmple                                                 
00019b3b  __aeabi_cdrcmple                                                
0001cc61  __aeabi_d2iz                                                    
0000fad3  __aeabi_dadd                                                    
000122c9  __aeabi_ddiv                                                    
000146bd  __aeabi_dmul                                                    
0000fac9  __aeabi_dsub                                                    
0001f5a9  __aeabi_errno_addr                                              
0001e027  __aeabi_i2d                                                     
0001032f  __aeabi_idiv0                                                   
0001032f  __aeabi_ldiv0                                                   
0001a9df  __aeabi_ldivmod                                                 
0001a479  __aeabi_memclr                                                  
0001a479  __aeabi_memclr4                                                 
0001a479  __aeabi_memclr8                                                 
000189a1  __aeabi_memcpy                                                  
000189a1  __aeabi_memcpy4                                                 
000189a1  __aeabi_memcpy8                                                 
0001a47b  __aeabi_memset                                                  
0001a47b  __aeabi_memset4                                                 
0001a47b  __aeabi_memset8                                                 
00018c03  __aeabi_uldivmod                                                
ffffffff  __binit__                                                       
ffffffff  __c_args__                                                      
0000bd4d  __mktime32                                                      
20008140  __primary_heap_end__                                            
20000140  __primary_heap_start__                                          
2000fc00  __stack                                                         
20000000  __start___llvm_prf_cnts                                         
20000000  __stop___llvm_prf_cnts                                          
0001ece9  _args_main                                                      
0001bc79  _c_int00                                                        
000221f0  _ctypes_                                                        
2000b674  _lock                                                           
0000fe33  _nop                                                            
0001a381  _pthread_abstime2ticks                                          
0001e139  _pthread_cleanupFxn                                             
0001efe1  _pthread_cleanup_pop                                            
00018e59  _pthread_removeThreadKeys                                       
0001f379  _register_lock                                                  
0001f385  _register_unlock                                                
2000b47c  _tz                                                             
2000b678  _unlock                                                         
2000b0e1  a_optionStr                                                     
2000a7e4  addProfileUsageStr                                              
2000a0e0  ap_start_DetailsStr                                             
2000a5e0  ap_start_UsageStr                                               
2000a0f0  ap_start_channel_optionDetailsStr                               
2000a0e8  ap_start_h_optionDetailsStr                                     
2000a0f4  ap_start_l_optionDetailsStr                                     
2000b4c9  ap_start_str                                                    
2000a0ec  ap_start_txp_optionDetailsStr                                   
2000a0e4  ap_stop_DetailsStr                                              
2000b57c  ap_stop_UsageStr                                                
2000b4f3  ap_stop_str                                                     
20008200  app_CB                                                          
0001c59d  atoi                                                            
0001c5e9  atol                                                            
ffffffff  binit                                                           
2000b671  c_optionStr                                                     
0001e2cd  calloc                                                          
2000a270  cca_th1_optionDetailStr                                         
2000a274  cca_th2_optionDetailStr                                         
2000a278  cca_th3_optionDetailStr                                         
2000a27c  cca_th4_optionDetailStr                                         
2000a280  cca_th5_optionDetailStr                                         
2000a284  cca_th6_optionDetailStr                                         
2000a26c  cca_th_optionDetailStr                                          
2000a090  clearDetailsStr                                                 
2000b70e  clearStr                                                        
000152f9  clock_gettime                                                   
0001d6b9  clock_settime                                                   
00017d5d  cmdAPTransitionDisablecallback                                  
000185dd  cmdAPTransitionEnablecallback                                   
0000f3a1  cmdAddProfilecallback                                           
00012059  cmdAntSelectionDisablecallback                                  
000110cd  cmdAntSelectionEnablecallback                                   
0001f391  cmdClearcallback                                                
00012535  cmdCoexDisablecallback                                          
00011389  cmdCoexEnablecallback                                           
0000ca09  cmdConnectedStationsCallback                                    
00015049  cmdCountrycodecallback                                          
0001353d  cmdCreateFilterCallback                                         
00016141  cmdDeleteFilterCallback                                         
0001620d  cmdDisableFilterCallback                                        
000162d9  cmdEnableFilterCallback                                         
00009bbd  cmdEnableWoWLANCallback                                         
0000fc81  cmdGetProfilecallback                                           
000143c5  cmdHelpCallback                                                 
0000e191  cmdP2PModecallback                                              
0000fe35  cmdP2PStopcallback                                              
0000dacd  cmdPingCallback                                                 
2000b714  cmdPromptStr                                                    
00010189  cmdRecvCallback                                                 
0001178d  cmdScanCallback                                                 
00014a9d  cmdSendCallback                                                 
0000cc81  cmdSetPolicyCallback                                            
00018ad5  cmdSoftRoamingDisablecallback                                   
0000dd19  cmdSoftRoamingEnablecallback                                    
00010c81  cmdTranceiverModecallback                                       
00017e09  cmdTriggeredRoamingDisablecallback                              
0000d621  cmdTriggeredRoamingEnablecallback                               
00007d81  cmdWlanConnectCallback                                          
00018681  cmdWlanDisconnectCallback                                       
00008169  cmdWlanStartApCallback                                          
00008f61  cmdWlanStopApCallback                                           
000144c5  cmd_prompt                                                      
0001c635  copy_in                                                         
0001ebf3  copysign                                                        
0001ebf3  copysignl                                                       
2000b500  createFilterStr                                                 
2000a757  createFilterUsageStr                                            
2000a150  createFilter_a_optionDetailsStr                                 
2000a14c  createFilter_e_optionDetailsStr                                 
2000a144  createFilter_f_optionDetailsStr                                 
2000a15c  createFilter_i_optionDetailsStr                                 
2000a154  createFilter_m_optionDetailsStr                                 
2000a158  createFilter_o_optionDetailsStr                                 
2000a148  createFilter_v_optionDetailsStr                                 
2000a140  creteFilterDetailsStr                                           
2000b7b4  d_optionStr                                                     
2000a168  deleteFilterDetailsStr                                          
2000b50d  deleteFilterStr                                                 
2000a084  descriptionStr                                                  
2000a164  disableFilterDetailsStr                                         
2000b4d7  disableFilterStr                                                
2000b739  dns_optionStr                                                   
000039f1  drawRxHist                                                      
2000b7b7  e_optionStr                                                     
2000a160  enableFilterDetailsStr                                          
2000b51a  enableFilterStr                                                 
2000a16c  enableWoWLANDetailsStr                                          
2000b527  enableWoWLANStr                                                 
2000adf0  enableWoWLANUsageStr                                            
2000a17c  enableWoWLAN_Note_optionDetailsStr                              
2000a178  enableWoWLAN_i_optionDetailsStr                                 
2000a174  enableWoWLAN_u_optionDetailsStr                                 
2000a170  enableWoWLAN_v_optionDetailsStr                                 
2000b73e  ent_optionStr                                                   
2000b777  ext_optionStr                                                   
2000b7ba  f_optionStr                                                     
0001ec0d  free                                                            
0001b21d  frexp                                                           
0001b21d  frexpl                                                          
2000a2fc  gCmdList                                                        
2000b589  gGlobalLockCntReleased                                          
2000b588  gGlobalLockCntRequested                                         
2000b68c  gMaxCmd                                                         
2000b690  gSpawn_thread                                                   
20009654  g_CB                                                            
2000b6a0  g_Host_irq_Hndlr                                                
2000b160  g_LibsEvents                                                    
2000b58a  g_SlDeviceStatus                                                
20009dd8  g_SlInternalSpawnCB                                             
2000b69c  g_SpiFd                                                         
2000b184  g_UserEvents                                                    
2000b7bd  g_optionStr                                                     
2000b58c  g_pCB                                                           
2000b30c  getProfileUsageStr                                              
0001ed19  getch                                                           
0001d6f5  gpioButtonFxn1                                                  
2000b230  gpioCallbackFunctions                                           
2000b250  gpioPinConfigs                                                  
2000b77b  gw_optionStr                                                    
2000b7c0  h_optionStr                                                     
2000a088  helpDetailsStr                                                  
2000b743  helpStr                                                         
2000b413  helpUsageStr                                                    
2000a08c  help_optaionDetails                                             
2000b71a  help_optionStr                                                  
000154b9  hexbyteStrtoASCII                                               
2000b7c3  i_optionStr                                                     
0000e801  initAppVariables                                                
2000b77f  ip_optionStr                                                    
00018b6d  ipv4AddressParse                                                
0000e3c1  ipv6AddressParse                                                
0001c501  isChannelAt                                                     
2000b7c6  l_optionStr                                                     
00013769  ldexp                                                           
00013769  ldexpl                                                          
2000b7c9  lineBreak                                                       
0000b541  mDNSAdvertiseCallback                                           
2000a180  mDNSAdvertiseDetailsStr                                         
2000b4e5  mDNSAdvertiseStr                                                
2000a8f8  mDNSAdvertiseUsageStr                                           
2000a184  mDNSAdvertise_n_optionDetailsStr                                
2000a198  mDNSAdvertise_p_optionDetailsStr                                
2000a188  mDNSAdvertise_so_optionDetailsStr                               
2000a18c  mDNSAdvertise_st_optionDetailsStr                               
2000a194  mDNSAdvertise_t_optionDetailsStr                                
2000a190  mDNSAdvertise_ttl_optionDetailsStr                              
000068c9  mDNSQueryCallback                                               
2000b641  mDNSQueryStr                                                    
00016071  mDNScreateServiceName                                           
2000a19c  mDNSdQueryDetailsStr                                            
2000aca9  mDNSdQueryUsageStr                                              
2000a1a0  mDNSdQuery_n_optionDetailsStr                                   
2000a1ac  mDNSdQuery_o_optionDetailsStr                                   
2000a1a8  mDNSdQuery_so_optionDetailsStr                                  
2000a1a4  mDNSdQuery_st_optionDetailsStr                                  
2000b7cc  m_optionStr                                                     
000165fd  macAddressParse                                                 
2000b748  mac_optionStr                                                   
0001ae79  main                                                            
0000df5d  mainThread                                                      
2000b78c  main_func_sp                                                    
0001e055  malloc                                                          
0001ea71  memccpy                                                         
000189a1  memcpy                                                          
0001a481  memset                                                          
0000bd4d  mktime                                                          
2000b7cf  n_optionStr                                                     
2000b783  nb_optionStr                                                    
2000b7d2  o_optionStr                                                     
0000afc9  p2pConnect                                                      
2000a298  p2pStartDetailsStr                                              
2000b668  p2pStartcmdStr                                                  
2000a29c  p2pStopDetailsStr                                               
2000b694  p2pStopcmdStr                                                   
2000b590  pPingCallBackFunc                                               
2000b7d5  p_optionStr                                                     
2000a100  pingDetailsStr                                                  
2000b74d  pingStr                                                         
2000ab7e  pingUsageStr                                                    
2000a108  ping_c_optionDetailsStr                                         
2000a104  ping_h_optionDetailsStr                                         
2000a10c  ping_i_optionDetailsStr                                         
2000a110  ping_s_optionDetailsStr                                         
2000a114  ping_t_optionDetailsStr                                         
0001b6b9  printAPTransitionDisableUsage                                   
0001b715  printAPTransitionEnableUsage                                    
000182a5  printAddProfileUsage                                            
0001b771  printAntSelectionDisableUsage                                   
0001aee1  printAntSelectionEnableUsage                                    
0001dc95  printBorder                                                     
0001cf25  printClearUsage                                                 
0001b7cd  printCoexDisableUsage                                           
0001af49  printCoexEnableUsage                                            
0001b829  printConnectedStationsUsage                                     
0001a5e5  printCountrycodeeUsage                                          
00013655  printCreateFilterUsage                                          
0001bcd1  printDeleteFilterUsage                                          
0001bd29  printDisableFilterUsage                                         
0001bd81  printEnableFilterUsage                                          
000196e1  printEnableWoWLANUsage                                          
00008515  printExtScanResults                                             
000114e1  printFrameSubTyps                                               
0001afb1  printGetProfileUsage                                            
0001c411  printHelpUsage                                                  
0001b019  printP2PStartUsage                                              
0001b081  printP2PStopUsage                                               
00018a3d  printPingUsage                                                  
00015b8d  printRecvUsage                                                  
0000b285  printScanResults                                                
00019d55  printScanUsage                                                  
000168f5  printSendUsage                                                  
00018349  printSetPolicyUsage                                             
0001b885  printSoftRoamingDisableUsage                                    
0001a659  printSoftRoamingEnableUsage                                     
0001c039  printTranceiverModeUsage                                        
0001b8e1  printTriggeredRoamingDisableUsage                               
0001a6cd  printTriggeredRoamingEnableUsage                                
000177ed  printWlanConnectUsage                                           
0001b93d  printWlanDisconnectUsage                                        
0001789d  printWlanStartApUsage                                           
0001b999  printWlanStopApUsage                                            
00017f5d  printmDNSAdvertiseUsage                                         
00019389  printmDNSQueryUsage                                             
2000b787  priority_optionStr                                              
0001e5e9  pthread_attr_init                                               
0001f299  pthread_attr_setdetachstate                                     
0001ef19  pthread_attr_setschedparam                                      
0001f529  pthread_attr_setstacksize                                       
0001b281  pthread_cancel                                                  
00014e69  pthread_create                                                  
0001b2e9  pthread_exit                                                    
0001b351  pthread_join                                                    
0001ee51  pthread_mutex_destroy                                           
0001cc19  pthread_mutex_init                                              
0001f531  pthread_mutex_lock                                              
0001d381  pthread_mutex_unlock                                            
0001f121  pthread_mutexattr_init                                          
0001f131  pthread_mutexattr_settype                                       
0001f3a9  pthread_self                                                    
0001dff9  pthread_setcancelstate                                          
0001ed31  putch                                                           
2000b7d8  r_optionStr                                                     
0001d731  radioTool_Close                                                 
0001db39  radioTool_GetStats                                              
0001746d  radioTool_Open                                                  
00019419  radioTool_RxStart                                               
0001e1c5  radioTool_RxStop                                                
00008c35  radioTool_TxStart                                               
0001a4f5  radioTool_TxStop                                                
2000a080  radioTool_rawSocketdesc                                         
2000af00  radiotoolDetailsStr                                             
2000b44a  radiotool_PromptStr                                             
2000b64b  radiotool_Str                                                   
0001d5bd  realloc                                                         
2000a124  recvDetailsStr                                                  
2000b752  recvStr                                                         
2000a11c  recvUsage1Str                                                   
2000a120  recvUsage2Str                                                   
2000a13c  recv_6_optionDetailsStr                                         
2000abee  recv_Note_optionDetailsStr                                      
2000a128  recv_c_optionDetailsStr                                         
2000a138  recv_nb_optionDetailsStr                                        
2000a134  recv_p_optionDetailsStr                                         
2000a12c  recv_s_optionDetailsStr                                         
2000a130  recv_u_optionDetailsStr                                         
2000b7db  s_optionStr                                                     
00013769  scalbn                                                          
00013769  scalbnl                                                         
2000a094  scanDetailsStr                                                  
2000b757  scanStr                                                         
2000b0b4  scanUsageStr                                                    
2000a0a0  scan_Note_optionDetailsStr                                      
2000a09c  scan_ext_optionDetailsStr                                       
2000a098  scan_n_optionDetailsStr                                         
0001f4d9  sem_destroy                                                     
0001f541  sem_getvalue                                                    
0001e321  sem_init                                                        
0001f4e9  sem_post                                                        
0001d601  sem_timedwait                                                   
0001f2a9  sem_wait                                                        
00019e5d  sem_wait_timeout                                                
00017c01  sendConnectionReq                                               
2000a118  sendDetailsStr                                                  
2000b75c  sendStr                                                         
2000ac4c  sendUsage1Str                                                   
2000ad54  sendUsage2Str                                                   
2000b1cc  send_6_optionDetailsStr                                         
2000ab04  send_c_optionDetailsStr                                         
2000afb0  send_n_optionDetailsStr                                         
2000afe8  send_n_r_optionDetailsStr                                       
2000af77  send_nb_optionDetailsStr                                        
2000af3c  send_p_optionDetailsStr                                         
2000b327  send_s_optionDetailsStr                                         
2000b270  send_u_optionDetailsStr                                         
00009281  setP2Pparams                                                    
2000a0a4  setPolicyDetailsStr                                             
2000b655  setPolicyStr                                                    
2000a97f  setPolicyUsageStr                                               
2000a0b0  setPolicy_c_optionDetailsStr                                    
2000a0b4  setPolicy_d_optionDetailsStr                                    
2000a0ac  setPolicy_h_optionDetailsStr                                    
2000a0a8  setPolicy_i_optionDetailsStr                                    
2000a0bc  setPolicy_o_optionDetailsStr                                    
2000a0b8  setPolicy_r_optionDetailsStr                                    
0000ebf5  setStaticIPConfig                                               
00016e09  showAvailableCmd                                                
0001a821  showCCAThreshHoldMenu                                           
00012191  showMenu                                                        
000130d5  showModCodeMenu                                                 
00012401  showPHYConfMenu                                                 
0001e84d  showPowMenu                                                     
0001b9f5  showPreambleMenu                                                
0001a891  showRxMenu                                                      
0000f911  showTxMenu                                                      
0000ffe1  sl_Accept                                                       
000183ed  sl_Bind                                                         
000147b9  sl_Close                                                        
00010999  sl_Connect                                                      
00016ec1  sl_DeviceGet                                                    
0001a1fd  sl_DeviceSet                                                    
0001d07d  sl_Htonl                                                        
0001d76d  sl_Htons                                                        
0001be31  sl_Listen                                                       
00010df1  sl_NetAppDnsGetHostByName                                       
00013879  sl_NetAppDnsGetHostByService                                    
00018491  sl_NetAppGet                                                    
00015ed1  sl_NetAppGetServiceList                                         
0001c08d  sl_NetAppMDNSRegisterService                                    
0001c6cd  sl_NetAppMDNSUnRegisterService                                  
0000f749  sl_NetAppPing                                                   
00019ee1  sl_NetAppSet                                                    
0001cf69  sl_NetAppStart                                                  
0001cfad  sl_NetAppStop                                                   
000166bd  sl_NetCfgGet                                                    
00019f65  sl_NetCfgSet                                                    
000197f9  sl_Recv                                                         
00011639  sl_RecvFrom                                                     
000169b1  sl_Send                                                         
00014b91  sl_SendTo                                                       
00019fe9  sl_SetSockOpt                                                   
0001a56d  sl_Socket                                                       
000131f1  sl_Start                                                        
0000f1c5  sl_Stop                                                         
0001f4f3  sl_Task                                                         
0000baa9  sl_WifiConfig                                                   
0000c78d  sl_WlanConnect                                                  
0001e60d  sl_WlanDisconnect                                               
00016f79  sl_WlanGet                                                      
00018eed  sl_WlanGetExtNetworkList                                        
00018f81  sl_WlanGetNetworkList                                           
0001a3fd  sl_WlanPolicySet                                                
0000b7f9  sl_WlanProfileAdd                                               
0001c719  sl_WlanProfileDel                                               
00013425  sl_WlanProfileGet                                               
00016a6d  sl_WlanProvisioning                                             
000194a9  sl_WlanRxFilterAdd                                              
0001794d  sl_WlanRxStatGet                                                
00019885  sl_WlanRxStatStart                                              
00019911  sl_WlanRxStatStop                                               
0001a06d  sl_WlanSet                                                      
0001c765  sl_WlanSetMode                                                  
0001d7a9  sleep                                                           
2000b794  so_optionStr                                                    
2000ada2  space_str                                                       
00022618  spiMSP432DMAHWAttrs                                             
20009d90  spiMSP432DMAObjects                                             
0001f2b7  spi_Close                                                       
0001b47d  spi_Open                                                        
00017521  spi_Read                                                        
000175d5  spi_Write                                                       
2000b798  st_optionStr                                                    
0001e971  strcat                                                          
0001ee67  strchr                                                          
0001ed49  strcmp                                                          
0001ef2d  strcpy                                                          
0001e631  strcspn                                                         
0001ef41  strlen                                                          
0001d9ff  strncpy                                                         
0001e34b  strspn                                                          
0001dad1  strstr                                                          
0001d3c1  strtok                                                          
00012795  strtol                                                          
00013989  strtoul                                                         
2000b7de  t_optionStr                                                     
2000b1a8  ti_sysbios_BIOS_Module__state__V                                
0001e21d  ti_sysbios_BIOS_RtsGateProxy_Handle__label__S                   
0001a175  ti_sysbios_BIOS_RtsGateProxy_enter__E                           
0001a27d  ti_sysbios_BIOS_RtsGateProxy_leave__E                           
0001f5b9  ti_sysbios_BIOS_RtsGateProxy_query__E                           
0001dcc5  ti_sysbios_BIOS_atExitFunc__I                                   
0001ee7d  ti_sysbios_BIOS_exitFunc__I                                     
0001f151  ti_sysbios_BIOS_exit__E                                         
0001f5d1  ti_sysbios_BIOS_linkedWithIncorrectBootLibrary__E               
000123ff  ti_sysbios_BIOS_nullFunc__I                                     
0001e655  ti_sysbios_BIOS_registerRTSLock__I                              
0001e679  ti_sysbios_BIOS_removeRTSLock__I                                
0001e86d  ti_sysbios_BIOS_rtsLock__I                                      
0001ed61  ti_sysbios_BIOS_rtsUnlock__I                                    
0001f161  ti_sysbios_BIOS_setCpuFreq__E                                   
0001f171  ti_sysbios_BIOS_setThreadType__E                                
0001dcf5  ti_sysbios_BIOS_startFunc__I                                    
0001f181  ti_sysbios_BIOS_start__E                                        
00022b80  ti_sysbios_family_arm_m3_Hwi_E_alreadyDefined__C                
00022b84  ti_sysbios_family_arm_m3_Hwi_E_badIntNum__C                     
0001d7e9  ti_sysbios_family_arm_m3_Hwi_Instance_finalize__E               
00017031  ti_sysbios_family_arm_m3_Hwi_Instance_init__E                   
2000b2ee  ti_sysbios_family_arm_m3_Hwi_Module_State_0_excActive__A        
2000b79c  ti_sysbios_family_arm_m3_Hwi_Module_State_0_excContext__A       
2000b7a0  ti_sysbios_family_arm_m3_Hwi_Module_State_0_excStack__A         
00022362  ti_sysbios_family_arm_m3_Hwi_Module__id__C                      
2000b6a4  ti_sysbios_family_arm_m3_Hwi_Module__root__V                    
0001ed79  ti_sysbios_family_arm_m3_Hwi_Module__startupDone__F             
0001ed79  ti_sysbios_family_arm_m3_Hwi_Module__startupDone__S             
2000b020  ti_sysbios_family_arm_m3_Hwi_Module__state__V                   
0001c461  ti_sysbios_family_arm_m3_Hwi_Module_startup__E                  
00022b88  ti_sysbios_family_arm_m3_Hwi_NUM_INTERRUPTS__C                  
00022794  ti_sysbios_family_arm_m3_Hwi_Object__DESC__C                    
00022548  ti_sysbios_family_arm_m3_Hwi_Object__PARAMS__C                  
00022b8c  ti_sysbios_family_arm_m3_Hwi_Object__count__C                   
0001e88d  ti_sysbios_family_arm_m3_Hwi_Object__delete__S                  
0001ef55  ti_sysbios_family_arm_m3_Hwi_Object__get__S                     
2000b35c  ti_sysbios_family_arm_m3_Hwi_Object__table__V                   
0001f3b5  ti_sysbios_family_arm_m3_Hwi_Params__init__S                    
00022b90  ti_sysbios_family_arm_m3_Hwi_ccr__C                             
0001e8b1  ti_sysbios_family_arm_m3_Hwi_clearInterrupt__E                  
0001c0e1  ti_sysbios_family_arm_m3_Hwi_create                             
0001abfd  ti_sysbios_family_arm_m3_Hwi_delete                             
0001f3c1  ti_sysbios_family_arm_m3_Hwi_disableFxn__E                      
0001cca9  ti_sysbios_family_arm_m3_Hwi_disableInterrupt__E                
0001b3b9  ti_sysbios_family_arm_m3_Hwi_dispatchC__I                       
20009c50  ti_sysbios_family_arm_m3_Hwi_dispatchTable                      
00014f59  ti_sysbios_family_arm_m3_Hwi_dispatch__I                        
0001f549  ti_sysbios_family_arm_m3_Hwi_doSwiRestore__I                    
0001f569  ti_sysbios_family_arm_m3_Hwi_doTaskRestore__I                   
0001ccf1  ti_sysbios_family_arm_m3_Hwi_enableInterrupt__E                 
0001e48d  ti_sysbios_family_arm_m3_Hwi_excHandlerAsm__I                   
00022b94  ti_sysbios_family_arm_m3_Hwi_excHandlerFunc__C                  
0001ea91  ti_sysbios_family_arm_m3_Hwi_excHandler__I                      
0001cff1  ti_sysbios_family_arm_m3_Hwi_getStackInfo__E                    
00019019  ti_sysbios_family_arm_m3_Hwi_initNVIC__E                        
0001bee1  ti_sysbios_family_arm_m3_Hwi_initStacks__E                      
0001502d  ti_sysbios_family_arm_m3_Hwi_interruptsAreDisabledButShouldNotBe
00022b98  ti_sysbios_family_arm_m3_Hwi_nullIsrFunc__C                     
e000e000  ti_sysbios_family_arm_m3_Hwi_nvic                               
0001e555  ti_sysbios_family_arm_m3_Hwi_pendSV__I                          
0001a0f1  ti_sysbios_family_arm_m3_Hwi_postInit__I                        
00022b9c  ti_sysbios_family_arm_m3_Hwi_priGroup__C                        
20000000  ti_sysbios_family_arm_m3_Hwi_ramVectors                         
00000000  ti_sysbios_family_arm_m3_Hwi_resetVectors                       
0001f571  ti_sysbios_family_arm_m3_Hwi_restoreFxn__E                      
0001e579  ti_sysbios_family_arm_m3_Hwi_return                             
0001f551  ti_sysbios_family_arm_m3_Hwi_startup__E                         
00022ba0  ti_sysbios_family_arm_m3_Hwi_swiDisable__C                      
00022ba4  ti_sysbios_family_arm_m3_Hwi_swiRestore__C                      
0001ef69  ti_sysbios_family_arm_m3_Hwi_switchFromBootStack__E             
0001b2e5  ti_sysbios_family_arm_m3_TaskSupport_Module__startupDone__S     
0001999d  ti_sysbios_family_arm_m3_TaskSupport_buildTaskStack             
0001f3d1  ti_sysbios_family_arm_m3_TaskSupport_getStackAlignment__E       
0001f191  ti_sysbios_family_arm_m3_TaskSupport_glue                       
00022ba8  ti_sysbios_family_arm_m3_TaskSupport_stackAlignment__C          
0001dd29  ti_sysbios_family_arm_m3_TaskSupport_start__E                   
0001ed91  ti_sysbios_family_arm_m3_TaskSupport_swap__E                    
2000b594  ti_sysbios_family_arm_msp432_ClockFreqs_Module__state__V        
0001e6a1  ti_sysbios_family_arm_msp432_ClockFreqs_setFrequency__E         
0001d829  ti_sysbios_family_arm_msp432_Seconds_Module_startup__E          
00022a24  ti_sysbios_family_arm_msp432_Seconds_daysPerMonthLeap__A        
00022bac  ti_sysbios_family_arm_msp432_Seconds_daysPerMonthLeap__C        
00022a30  ti_sysbios_family_arm_msp432_Seconds_daysPerMonthNonLeap__A     
00022bb0  ti_sysbios_family_arm_msp432_Seconds_daysPerMonthNonLeap__C     
0001f011  ti_sysbios_family_arm_msp432_Seconds_getTime__E                 
0001ab91  ti_sysbios_family_arm_msp432_Seconds_get__E                     
0001f3e1  ti_sysbios_family_arm_msp432_Seconds_setTime__E                 
00011a21  ti_sysbios_family_arm_msp432_Seconds_set__E                     
2000b290  ti_sysbios_family_arm_msp432_Timer_Module_State_0_device__A     
2000b49c  ti_sysbios_family_arm_msp432_Timer_Module_State_0_handles__A    
0001eda9  ti_sysbios_family_arm_msp432_Timer_Module__startupDone__F       
0001eda9  ti_sysbios_family_arm_msp432_Timer_Module__startupDone__S       
2000b5a0  ti_sysbios_family_arm_msp432_Timer_Module__state__V             
0001d401  ti_sysbios_family_arm_msp432_Timer_Module_startup__E            
2000ae38  ti_sysbios_family_arm_msp432_Timer_Object__table__V             
0001f3f1  ti_sysbios_family_arm_msp432_Timer_getMaxTicks__E               
0001c139  ti_sysbios_family_arm_msp432_Timer_initDevice__I                
00022bb4  ti_sysbios_family_arm_msp432_Timer_numTimerDevices__C           
000180b1  ti_sysbios_family_arm_msp432_Timer_periodicStub__E              
0001c7b1  ti_sysbios_family_arm_msp432_Timer_postInit__I                  
0001c801  ti_sysbios_family_arm_msp432_Timer_start__E                     
00022bb8  ti_sysbios_family_arm_msp432_Timer_startupNeeded__C             
0001d441  ti_sysbios_family_arm_msp432_Timer_startup__E                   
000229fa  ti_sysbios_family_arm_msp432_init_Boot_bypassHFXT__C            
00022c50  ti_sysbios_family_arm_msp432_init_Boot_bypassLFXT__C            
000148b1  ti_sysbios_family_arm_msp432_init_Boot_configureClocksHigh      
0001f1a1  ti_sysbios_family_arm_msp432_init_Boot_disableWatchdog          
00022c52  ti_sysbios_family_arm_msp432_init_Boot_enableHFXT__C            
00022c54  ti_sysbios_family_arm_msp432_init_Boot_enableLFXT__C            
0001ec29  ti_sysbios_family_arm_msp432_init_Boot_init__I                  
0001e98f  ti_sysbios_family_xxx_Hwi_switchAndRunFunc                      
0001e1f1  ti_sysbios_gates_GateHwi_Handle__label__S                       
0001f5d9  ti_sysbios_gates_GateHwi_Instance_init__E                       
0002263c  ti_sysbios_gates_GateHwi_Module__FXNS__C                        
2000b6ac  ti_sysbios_gates_GateHwi_Module__root__V                        
000227b4  ti_sysbios_gates_GateHwi_Object__DESC__C                        
000228ac  ti_sysbios_gates_GateHwi_Object__PARAMS__C                      
0001dd59  ti_sysbios_gates_GateHwi_Object__create__S                      
0001e8d1  ti_sysbios_gates_GateHwi_Object__delete__S                      
2000b7a4  ti_sysbios_gates_GateHwi_Object__table__V                       
0001f401  ti_sysbios_gates_GateHwi_enter__E                               
0001f579  ti_sysbios_gates_GateHwi_leave__E                               
0001f5b1  ti_sysbios_gates_GateHwi_query__E                               
0001e21d  ti_sysbios_gates_GateMutex_Handle__label__S                     
00022bbc  ti_sysbios_gates_GateMutex_Instance_State_sem__O                
0001f1b1  ti_sysbios_gates_GateMutex_Instance_finalize__E                 
0001eab1  ti_sysbios_gates_GateMutex_Instance_init__E                     
00022660  ti_sysbios_gates_GateMutex_Module__FXNS__C                      
2000b6b4  ti_sysbios_gates_GateMutex_Module__root__V                      
000227d4  ti_sysbios_gates_GateMutex_Object__DESC__C                      
000228c4  ti_sysbios_gates_GateMutex_Object__PARAMS__C                    
0001dd89  ti_sysbios_gates_GateMutex_Object__create__S                    
0001e6c5  ti_sysbios_gates_GateMutex_Object__delete__S                    
2000ad00  ti_sysbios_gates_GateMutex_Object__table__V                     
0001ddb9  ti_sysbios_gates_GateMutex_enter__E                             
0001edc1  ti_sysbios_gates_GateMutex_leave__E                             
0001f5b9  ti_sysbios_gates_GateMutex_query__E                             
0001ed79  ti_sysbios_hal_Hwi_HwiProxy_Module__startupDone__S              
0001f3b5  ti_sysbios_hal_Hwi_HwiProxy_Params__init__S                     
0001e8b1  ti_sysbios_hal_Hwi_HwiProxy_clearInterrupt__E                   
0001cca9  ti_sysbios_hal_Hwi_HwiProxy_disableInterrupt__E                 
0001f3c1  ti_sysbios_hal_Hwi_HwiProxy_disable__E                          
0001ccf1  ti_sysbios_hal_Hwi_HwiProxy_enableInterrupt__E                  
0001cff1  ti_sysbios_hal_Hwi_HwiProxy_getStackInfo__E                     
0001f571  ti_sysbios_hal_Hwi_HwiProxy_restore__E                          
0001f551  ti_sysbios_hal_Hwi_HwiProxy_startup__E                          
0001ef69  ti_sysbios_hal_Hwi_HwiProxy_switchFromBootStack__E              
0001f029  ti_sysbios_hal_Hwi_Module_startup__E                            
0001e8b1  ti_sysbios_hal_Hwi_clearInterrupt__E                            
0001cca9  ti_sysbios_hal_Hwi_disableInterrupt__E                          
0001ccf1  ti_sysbios_hal_Hwi_enableInterrupt__E                           
0001cff1  ti_sysbios_hal_Hwi_getStackInfo__E                              
0001db71  ti_sysbios_hal_Hwi_initStack                                    
0001f551  ti_sysbios_hal_Hwi_startup__E                                   
0001ef69  ti_sysbios_hal_Hwi_switchFromBootStack__E                       
0001f011  ti_sysbios_hal_Seconds_SecondsProxy_getTime__E                  
0001ab91  ti_sysbios_hal_Seconds_SecondsProxy_get__E                      
0001f3e1  ti_sysbios_hal_Seconds_SecondsProxy_setTime__E                  
00011a21  ti_sysbios_hal_Seconds_SecondsProxy_set__E                      
0001f011  ti_sysbios_hal_Seconds_getTime__E                               
0001ab91  ti_sysbios_hal_Seconds_get__E                                   
0001f3e1  ti_sysbios_hal_Seconds_setTime__E                               
00011a21  ti_sysbios_hal_Seconds_set__E                                   
00022bc0  ti_sysbios_heaps_HeapMem_E_memory__C                            
0001e249  ti_sysbios_heaps_HeapMem_Handle__label__S                       
0001d481  ti_sysbios_heaps_HeapMem_Instance_init__E                       
0001e21d  ti_sysbios_heaps_HeapMem_Module_GateProxy_Handle__label__S      
0001b34d  ti_sysbios_heaps_HeapMem_Module_GateProxy_enter__E              
0001b3b5  ti_sysbios_heaps_HeapMem_Module_GateProxy_leave__E              
0001f5b9  ti_sysbios_heaps_HeapMem_Module_GateProxy_query__E              
000225cc  ti_sysbios_heaps_HeapMem_Module__FXNS__C                        
00022bc4  ti_sysbios_heaps_HeapMem_Module__gateObj__C                     
00022c56  ti_sysbios_heaps_HeapMem_Module__id__C                          
2000b6bc  ti_sysbios_heaps_HeapMem_Module__root__V                        
000227f4  ti_sysbios_heaps_HeapMem_Object__DESC__C                        
00022684  ti_sysbios_heaps_HeapMem_Object__PARAMS__C                      
00022bc8  ti_sysbios_heaps_HeapMem_Object__count__C                       
0001dde9  ti_sysbios_heaps_HeapMem_Object__create__S                      
0001e8f1  ti_sysbios_heaps_HeapMem_Object__delete__S                      
0001ef7d  ti_sysbios_heaps_HeapMem_Object__get__S                         
2000b374  ti_sysbios_heaps_HeapMem_Object__table__V                       
00015fa1  ti_sysbios_heaps_HeapMem_alloc__E                               
0001a179  ti_sysbios_heaps_HeapMem_free__E                                
0001c851  ti_sysbios_heaps_HeapMem_getStats__E                            
0001a901  ti_sysbios_heaps_HeapMem_initPrimary__I                         
0001f581  ti_sysbios_heaps_HeapMem_isBlocking__E                          
00022bcc  ti_sysbios_heaps_HeapMem_primaryHeapBaseAddr__C                 
00022bd0  ti_sysbios_heaps_HeapMem_primaryHeapEndAddr__C                  
00022bd4  ti_sysbios_heaps_HeapMem_reqAlign__C                            
0001ead1  ti_sysbios_knl_Clock_Instance_finalize__E                       
0001d4c1  ti_sysbios_knl_Clock_Instance_init__E                           
00022bd8  ti_sysbios_knl_Clock_Module_State_clockQ__O                     
2000b6c4  ti_sysbios_knl_Clock_Module__root__V                            
2000b110  ti_sysbios_knl_Clock_Module__state__V                           
0001e6e9  ti_sysbios_knl_Clock_Module_startup__E                          
00022814  ti_sysbios_knl_Clock_Object__DESC__C                            
000226a8  ti_sysbios_knl_Clock_Object__PARAMS__C                          
0001e70d  ti_sysbios_knl_Clock_Object__delete__S                          
0001f40d  ti_sysbios_knl_Clock_Params__init__S                            
0001eda9  ti_sysbios_knl_Clock_TimerProxy_Module__startupDone__S          
0001b4dd  ti_sysbios_knl_Clock_TimerProxy_getMaxTicks__E                  
0001d441  ti_sysbios_knl_Clock_TimerProxy_startup__E                      
0001e4b9  ti_sysbios_knl_Clock_addI__E                                    
0001d865  ti_sysbios_knl_Clock_create                                     
0001baad  ti_sysbios_knl_Clock_delete                                     
0001e275  ti_sysbios_knl_Clock_doTick__I                                  
0001f419  ti_sysbios_knl_Clock_getTicks__E                                
0001f5e1  ti_sysbios_knl_Clock_logTick__E                                 
0001f5c1  ti_sysbios_knl_Clock_setTimeout__E                              
0001e731  ti_sysbios_knl_Clock_start__E                                   
0001f589  ti_sysbios_knl_Clock_stop__E                                    
00022bdc  ti_sysbios_knl_Clock_tickPeriod__C                              
0001a281  ti_sysbios_knl_Clock_workFunc__E                                
00022a90  ti_sysbios_knl_Idle_funcList__A                                 
00022a98  ti_sysbios_knl_Idle_funcList__C                                 
0001f2c9  ti_sysbios_knl_Idle_loop__E                                     
0001e911  ti_sysbios_knl_Idle_run__E                                      
00022be0  ti_sysbios_knl_Mailbox_Instance_State_freeQue__O                
0001cd39  ti_sysbios_knl_Mailbox_Module_startup__E                        
00022be4  ti_sysbios_knl_Mailbox_Object__count__C                         
0001f1c1  ti_sysbios_knl_Mailbox_Object__get__S                           
00022be8  ti_sysbios_knl_Mailbox_maxTypeAlign__C                          
0001de19  ti_sysbios_knl_Mailbox_postInit__I                              
0001f591  ti_sysbios_knl_Queue_Instance_init__E                           
2000b6cc  ti_sysbios_knl_Queue_Module__root__V                            
00022834  ti_sysbios_knl_Queue_Object__DESC__C                            
000228dc  ti_sysbios_knl_Queue_Object__PARAMS__C                          
0001f425  ti_sysbios_knl_Queue_Object__get__S                             
0001e2a1  ti_sysbios_knl_Queue_construct                                  
0001eaed  ti_sysbios_knl_Queue_destruct                                   
0001f2d9  ti_sysbios_knl_Queue_empty__E                                   
0001eb09  ti_sysbios_knl_Queue_put__E                                     
00022bec  ti_sysbios_knl_Semaphore_Instance_State_pendQ__O                
0001f1d1  ti_sysbios_knl_Semaphore_Instance_finalize__E                   
0001e759  ti_sysbios_knl_Semaphore_Instance_init__E                       
2000b6d4  ti_sysbios_knl_Semaphore_Module__root__V                        
00022854  ti_sysbios_knl_Semaphore_Object__DESC__C                        
000226cc  ti_sysbios_knl_Semaphore_Object__PARAMS__C                      
0001e77d  ti_sysbios_knl_Semaphore_Object__delete__S                      
0001f431  ti_sysbios_knl_Semaphore_Params__init__S                        
0001de49  ti_sysbios_knl_Semaphore_construct                              
0001db05  ti_sysbios_knl_Semaphore_create                                 
0001bb0d  ti_sysbios_knl_Semaphore_delete                                 
0001e931  ti_sysbios_knl_Semaphore_destruct                               
0001de79  ti_sysbios_knl_Semaphore_pendTimeout__I                         
000128c9  ti_sysbios_knl_Semaphore_pend__E                                
0001b4e1  ti_sysbios_knl_Semaphore_post__E                                
2000aa04  ti_sysbios_knl_Swi_Module_State_0_readyQ__A                     
2000b2f0  ti_sysbios_knl_Swi_Module__state__V                             
0001e4e1  ti_sysbios_knl_Swi_Module_startup__E                            
00022bf0  ti_sysbios_knl_Swi_Object__count__C                             
0001ef91  ti_sysbios_knl_Swi_Object__get__S                               
2000b084  ti_sysbios_knl_Swi_Object__table__V                             
0001f1e1  ti_sysbios_knl_Swi_disable__E                                   
0001d039  ti_sysbios_knl_Swi_post__E                                      
0001ac01  ti_sysbios_knl_Swi_restoreHwi__E                                
0001d8a1  ti_sysbios_knl_Swi_restore__E                                   
0001c8a1  ti_sysbios_knl_Swi_runLoop__I                                   
0001b541  ti_sysbios_knl_Swi_run__I                                       
0001ba51  ti_sysbios_knl_Swi_schedule__I                                  
0001f599  ti_sysbios_knl_Swi_startup__E                                   
2000a07c  ti_sysbios_knl_Task_Instance_State_0_hookEnv__A                 
20009a50  ti_sysbios_knl_Task_Instance_State_0_stack__A                   
000140c1  ti_sysbios_knl_Task_Instance_finalize__E                        
000153d9  ti_sysbios_knl_Task_Instance_init__E                            
2000b7a8  ti_sysbios_knl_Task_Module_State_0_idleTask__A                  
2000aa84  ti_sysbios_knl_Task_Module_State_0_readyQ__A                    
00022bf4  ti_sysbios_knl_Task_Module_State_inactiveQ__O                   
2000b6dc  ti_sysbios_knl_Task_Module__root__V                             
2000ae7c  ti_sysbios_knl_Task_Module__state__V                            
00019539  ti_sysbios_knl_Task_Module_startup__E                           
00022874  ti_sysbios_knl_Task_Object__DESC__C                             
000224a0  ti_sysbios_knl_Task_Object__PARAMS__C                           
00022bf8  ti_sysbios_knl_Task_Object__count__C                            
0001e951  ti_sysbios_knl_Task_Object__delete__S                           
0001f1f1  ti_sysbios_knl_Task_Object__get__S                              
00022bfc  ti_sysbios_knl_Task_Object__heap__C                             
2000ada4  ti_sysbios_knl_Task_Object__table__V                            
0001f43d  ti_sysbios_knl_Task_Params__init__S                             
0001b2e5  ti_sysbios_knl_Task_SupportProxy_Module__startupDone__S         
0001f3d1  ti_sysbios_knl_Task_SupportProxy_getStackAlignment__E           
0001dd29  ti_sysbios_knl_Task_SupportProxy_start__E                       
0001ed91  ti_sysbios_knl_Task_SupportProxy_swap__E                        
00022c00  ti_sysbios_knl_Task_allBlockedFunc__C                           
0001c8f1  ti_sysbios_knl_Task_allBlockedFunction__I                       
0001c4b1  ti_sysbios_knl_Task_create                                      
00022c04  ti_sysbios_knl_Task_defaultStackHeap__C                         
00022c08  ti_sysbios_knl_Task_defaultStackSize__C                         
0001c135  ti_sysbios_knl_Task_delete                                      
0001f201  ti_sysbios_knl_Task_disable__E                                  
0001eb29  ti_sysbios_knl_Task_enter__I                                    
000190b1  ti_sysbios_knl_Task_exit__E                                     
000228f4  ti_sysbios_knl_Task_hooks__A                                    
00022aa0  ti_sysbios_knl_Task_hooks__C                                    
00022c0c  ti_sysbios_knl_Task_numConstructedTasks__C                      
00013ba1  ti_sysbios_knl_Task_postInit__I                                 
0001dea9  ti_sysbios_knl_Task_processVitalTaskFlag__I                     
0001e7a1  ti_sysbios_knl_Task_restoreHwi__E                               
0001ded9  ti_sysbios_knl_Task_restore__E                                  
0001c941  ti_sysbios_knl_Task_schedule__I                                 
0001f449  ti_sysbios_knl_Task_self__E                                     
00018539  ti_sysbios_knl_Task_setPri__E                                   
0001edd9  ti_sysbios_knl_Task_sleepTimeout__I                             
00016539  ti_sysbios_knl_Task_sleep__E                                    
0001bab1  ti_sysbios_knl_Task_startCore__E                                
0001f5c9  ti_sysbios_knl_Task_startup__E                                  
0001ed9d  ti_sysbios_knl_Task_swapReturn                                  
0001df09  ti_sysbios_knl_Task_unblockI__E                                 
0001ee99  ti_sysbios_knl_Task_unblock__E                                  
2000b7ac  ti_sysbios_rts_ti_ReentSupport_Module__state__V                 
0001eb49  ti_sysbios_rts_ti_ReentSupport_getReent__E                      
0001eb49  ti_sysbios_rts_ti_ReentSupport_getReent__F                      
0001edf1  ti_sysbios_rts_ti_ReentSupport_getTlsAddr__I                    
0001f459  ti_sysbios_rts_ti_ReentSupport_taskRegHook__I                   
2000b761  ttl_optionStr                                                   
2000b766  txpow_optionStr                                                 
2000b7e1  u_optionStr                                                     
20009f00  uartMSP432Objects                                               
00022a3c  udmaMSP432HWAttrs                                               
2000a083  udmaMSP432Object                                                
2000b5f0  usageStr                                                        
0001d8e1  usleep                                                          
2000b7e4  v_optionStr                                                     
0001d501  vsnprintf                                                       
0001f03b  wcslen                                                          
00022a48  wifiSimplelinkHWAttrs                                           
2000a2d4  wlanAddProfileDetailsStr                                        
2000a0c0  wlanConnectDetailsStr                                           
2000b5ac  wlanConnectStr                                                  
2000a6c0  wlanConnectUsageStr                                             
2000a0d8  wlanConnect_dns_optionDetailsStr                                
2000a0dc  wlanConnect_ent_optionDetailStr                                 
2000a0d4  wlanConnect_gw_optionDetailsStr                                 
2000a0d0  wlanConnect_ip_optionDetailsStr                                 
2000a0cc  wlanConnect_p_optionDetailsStr                                  
2000a0c4  wlanConnect_s_optionDetailsStr                                  
2000a0c8  wlanConnect_t_optionDetailsStr                                  
2000a0f8  wlanDisConnectDetailsStr                                        
2000b4ac  wlanDisconnectStr                                               
2000b5b8  wlanDisconnectUsageStr                                          
2000a2e0  wlanGetProfileDetailsStr                                        
2000a2e4  wlanProfile_i_optionDetailsStr                                  
2000a2d8  wlanProfile_mac_optionDetailsStr                                
2000a2dc  wlanProfile_pr_optionDetailsStr                                 
00000001  xdc_rov_runtime_Mon__checksum                                   
00000001  xdc_rov_runtime_Mon__write                                      
0001cd81  xdc_runtime_Core_assignParams__I                                
00019c49  xdc_runtime_Core_constructObject__I                             
00017cb1  xdc_runtime_Core_createObject__I                                
0001b0e9  xdc_runtime_Core_deleteObject__I                                
00022c10  xdc_runtime_Error_E_memory__C                                   
2000b2b0  xdc_runtime_Error_IgnoreBlock                                   
0001ee09  xdc_runtime_Error_init__E                                       
00022c14  xdc_runtime_Error_policyFxn__C                                  
0001e7c9  xdc_runtime_Error_policyMin__E                                  
000222f1  xdc_runtime_Error_policy__C                                     
0001f469  xdc_runtime_Gate_enterSystem__E                                 
0001f211  xdc_runtime_Gate_leaveSystem__E                                 
00022c18  xdc_runtime_IGateProvider_Interface__BASE__C                    
00022c1c  xdc_runtime_IHeap_Interface__BASE__C                            
00022c20  xdc_runtime_IModule_Interface__BASE__C                          
0001e1f1  xdc_runtime_Main_Module_GateProxy_Handle__label__S              
0001f5b1  xdc_runtime_Main_Module_GateProxy_query__E                      
0001e249  xdc_runtime_Memory_HeapProxy_Handle__label__S                   
0001f4fd  xdc_runtime_Memory_HeapProxy_alloc__E                           
0001f507  xdc_runtime_Memory_HeapProxy_free__E                            
00022c58  xdc_runtime_Memory_Module__id__C                                
2000b7b0  xdc_runtime_Memory_Module__state__V                             
00019a29  xdc_runtime_Memory_alloc__E                                     
00022c24  xdc_runtime_Memory_defaultHeapInstance__C                       
0001f221  xdc_runtime_Memory_free__E                                      
0001eb69  xdc_runtime_Memory_valloc__E                                    
2000b6e4  xdc_runtime_Startup_Module__state__V                            
00000001  xdc_runtime_Startup__EXECFXN__C                                 
00000001  xdc_runtime_Startup__RESETFXN__C                                
00022c28  xdc_runtime_Startup_execImpl__C                                 
0001bb11  xdc_runtime_Startup_exec__E                                     
0001f04d  xdc_runtime_Startup_exec__I                                     
00022a54  xdc_runtime_Startup_firstFxns__A                                
00022aa8  xdc_runtime_Startup_firstFxns__C                                
00022ab0  xdc_runtime_Startup_lastFxns__C                                 
00022c2c  xdc_runtime_Startup_maxPasses__C                                
0001ec29  xdc_runtime_Startup_reset__I                                    
0001f479  xdc_runtime_Startup_rtsDone__E                                  
000229e8  xdc_runtime_Startup_sfxnRts__A                                  
00022c30  xdc_runtime_Startup_sfxnRts__C                                  
000226f0  xdc_runtime_Startup_sfxnTab__A                                  
00022c34  xdc_runtime_Startup_sfxnTab__C                                  
00013ca9  xdc_runtime_Startup_startMods__I                                
00022c38  xdc_runtime_SysCallback_abortFxn__C                             
0001f231  xdc_runtime_SysCallback_abort__E                                
0001f5e9  xdc_runtime_SysCallback_defaultAbort                            
0001f5f1  xdc_runtime_SysCallback_defaultExit                             
00022c3c  xdc_runtime_SysCallback_exitFxn__C                              
0001f241  xdc_runtime_SysCallback_exit__E                                 
0001e1f1  xdc_runtime_System_Module_GateProxy_Handle__label__S            
0001c7fd  xdc_runtime_System_Module_GateProxy_enter__E                    
0001c84d  xdc_runtime_System_Module_GateProxy_leave__E                    
0001f5b1  xdc_runtime_System_Module_GateProxy_query__E                    
2000b6ec  xdc_runtime_System_Module_State_0_atexitHandlers__A             
00022c40  xdc_runtime_System_Module__gateObj__C                           
2000b6f4  xdc_runtime_System_Module__state__V                             
0001f5a1  xdc_runtime_System_Module_startup__E                            
0001f231  xdc_runtime_System_SupportProxy_abort__E                        
0001f241  xdc_runtime_System_SupportProxy_exit__E                         
00022c44  xdc_runtime_System_abortFxn__C                                  
0001f5f9  xdc_runtime_System_abortSpin__E                                 
0001eb89  xdc_runtime_System_abort__E                                     
0001d991  xdc_runtime_System_atexit__E                                    
00022c48  xdc_runtime_System_exitFxn__C                                   
0001f601  xdc_runtime_System_exitSpin__E                                  
0001ee21  xdc_runtime_System_exit__E                                      
00022c4c  xdc_runtime_System_maxAtexitHandlers__C                         
0001df39  xdc_runtime_System_processAtExit__E                             


GLOBAL SYMBOLS: SORTED BY Symbol Address 

address   name                                                            
-------   ----                                                            
00000000  __ASM__                                                         
00000000  ti_sysbios_family_arm_m3_Hwi_resetVectors                       
00000001  xdc_rov_runtime_Mon__checksum                                   
00000001  xdc_rov_runtime_Mon__write                                      
00000001  xdc_runtime_Startup__EXECFXN__C                                 
00000001  xdc_runtime_Startup__RESETFXN__C                                
00000041  TxTask                                                          
00000072  __ISA__                                                         
00000085  __PLAT__                                                        
000000a8  __TARG__                                                        
000000ce  __TRDR__                                                        
00000400  __STACK_SIZE                                                    
000012a9  ParseCreateFilterCmd                                            
00001f49  __TI_printfi                                                    
00002997  Board_initHook                                                  
00003281  SimpleLinkWlanEventHandler                                      
000039f1  drawRxHist                                                      
00004061  ParseStartApCmd                                                 
000046a1  ParseRecvCmd                                                    
00004c19  TCPServer                                                       
00005121  RxTask                                                          
00005625  ParseSendCmd                                                    
00005b15  _SlSocketHandleAsync_Select                                     
00005fd1  ParseConnectCmd                                                 
00006455  UDPServer                                                       
000068c9  mDNSQueryCallback                                               
00006d35  ParseProfileCmd                                                 
00007175  TCPClient                                                       
00007597  NwpMaskInterrupt                                                
00007599  ParsePingCmd                                                    
0000798d  UDPClient                                                       
00007d81  cmdWlanConnectCallback                                          
00008000  HEAPSIZE                                                        
00008169  cmdWlanStartApCallback                                          
00008515  printExtScanResults                                             
00008c35  radioTool_TxStart                                               
00008f61  cmdWlanStopApCallback                                           
00009281  setP2Pparams                                                    
000095a1  DisplayAppBanner                                                
000098b1  _SlDrvReleasePoolObj                                            
00009bbd  cmdEnableWoWLANCallback                                         
00009eb9  Power_sleep                                                     
0000a1b1  SimpleLinkNetAppEventHandler                                    
0000a765  UARTMSP432_open                                                 
0000aa35  _SlDrvWaitForPoolObj                                            
0000ad05  ParsemDNSAdvertiseCmd                                           
0000afc9  p2pConnect                                                      
0000b285  printScanResults                                                
0000b541  mDNSAdvertiseCallback                                           
0000b7f9  sl_WlanProfileAdd                                               
0000baa9  sl_WifiConfig                                                   
0000bd4d  __mktime32                                                      
0000bd4d  mktime                                                          
0000bfed  SPIMSP432DMA_open                                               
0000c503  NwpUnMaskInterrupt                                              
0000c78d  sl_WlanConnect                                                  
0000ca09  cmdConnectedStationsCallback                                    
0000cc81  cmdSetPolicyCallback                                            
0000d165  ParseSetPolicyCmd                                               
0000d3c5  _SlDrvDataReadOp                                                
0000d621  cmdTriggeredRoamingEnablecallback                               
0000d87d  ParseEnableWoWLANCmd                                            
0000dacd  cmdPingCallback                                                 
0000dd19  cmdSoftRoamingEnablecallback                                    
0000df5d  mainThread                                                      
0000e191  cmdP2PModecallback                                              
0000e3c1  ipv6AddressParse                                                
0000e5e9  _SlDrvDataWriteOp                                               
0000e801  initAppVariables                                                
0000ebf5  setStaticIPConfig                                               
0000ede9  _SlNetAppEventHandler                                           
0000efdb  PowerMSP432_initPolicy                                          
0000efdd  SimpleLinkFatalErrorEventHandler                                
0000f1c5  sl_Stop                                                         
0000f3a1  cmdAddProfilecallback                                           
0000f749  sl_NetAppPing                                                   
0000f911  showTxMenu                                                      
0000fac9  __aeabi_dsub                                                    
0000fad3  __aeabi_dadd                                                    
0000fc7f  UARTMSP432_init                                                 
0000fc81  cmdGetProfilecallback                                           
0000fe33  _nop                                                            
0000fe35  cmdP2PStopcallback                                              
0000ffe1  sl_Accept                                                       
00010189  cmdRecvCallback                                                 
0001032f  __aeabi_idiv0                                                   
0001032f  __aeabi_ldiv0                                                   
00010331  _SlDrvDriverCBInit                                              
000104d5  _SlDrvReleaseAllActivePendingPoolObj                            
00010679  ParsemDNSQueryCmd                                               
00010999  sl_Connect                                                      
00010b11  GPIO_setConfig                                                  
00010c81  cmdTranceiverModecallback                                       
00010df1  sl_NetAppDnsGetHostByName                                       
00010f61  ParseCountycodeCmd                                              
000110cd  cmdAntSelectionEnablecallback                                   
00011389  cmdCoexEnablecallback                                           
000114e1  printFrameSubTyps                                               
00011639  sl_RecvFrom                                                     
0001178d  cmdScanCallback                                                 
00011a21  ti_sysbios_family_arm_msp432_Seconds_set__E                     
00011a21  ti_sysbios_hal_Seconds_SecondsProxy_set__E                      
00011a21  ti_sysbios_hal_Seconds_set__E                                   
00011b69  _SlDrvMsgReadSpawnCtx                                           
00011ca9  ParseTriggeredRoamingEnableCmd                                  
00011f21  _SlSpawnMsgListInsert                                           
00012059  cmdAntSelectionDisablecallback                                  
00012191  showMenu                                                        
000122c9  __aeabi_ddiv                                                    
000123ff  ti_sysbios_BIOS_nullFunc__I                                     
00012401  showPHYConfMenu                                                 
00012535  cmdCoexDisablecallback                                          
00012795  strtol                                                          
000128c5  CPU_wfi                                                         
000128c9  ti_sysbios_knl_Semaphore_pend__E                                
000129f9  SPIMSP432DMA_transfer                                           
00012b25  ParseScanCmd                                                    
00012fb9  UART_initModule                                                 
000130d5  showModCodeMenu                                                 
000131f1  sl_Start                                                        
0001330d  _SlNetAppHandleAsync_DnsGetHostByService                        
00013425  sl_WlanProfileGet                                               
0001353d  cmdCreateFilterCallback                                         
00013655  printCreateFilterUsage                                          
00013769  ldexp                                                           
00013769  ldexpl                                                          
00013769  scalbn                                                          
00013769  scalbnl                                                         
00013879  sl_NetAppDnsGetHostByService                                    
00013989  strtoul                                                         
00013ba1  ti_sysbios_knl_Task_postInit__I                                 
00013ca9  xdc_runtime_Startup_startMods__I                                
00013db1  SPIMSP432DMA_transferCancel                                     
00013eb5  _SlDeviceEventHandler                                           
00013fb9  _SlDrvCmdOp                                                     
000140bd  ClockP_setTimeout                                               
000140c1  ti_sysbios_knl_Task_Instance_finalize__E                        
000141c5  ParseSoftRoamingEnableCmd                                       
000142c5  _SlDrvObjGlobalLockWaitForever                                  
000143c5  cmdHelpCallback                                                 
000144c5  cmd_prompt                                                      
000146bd  __aeabi_dmul                                                    
000147b9  sl_Close                                                        
000148b1  ti_sysbios_family_arm_msp432_init_Boot_configureClocksHigh      
000149a9  SimpleLinkPingReport                                            
00014a9d  cmdSendCallback                                                 
00014b91  sl_SendTo                                                       
00014c85  DMA_setChannelTransfer                                          
00014d75  ParsegetProfileCmd                                              
00014e65  ClockP_start                                                    
00014e69  pthread_create                                                  
00014f59  ti_sysbios_family_arm_m3_Hwi_dispatch__I                        
0001502d  ti_sysbios_family_arm_m3_Hwi_interruptsAreDisabledButShouldNotBe
00015049  cmdCountrycodecallback                                          
00015135  CS_startHFXTWithTimeout                                         
00015219  CS_startLFXTWithTimeout                                         
000152f9  clock_gettime                                                   
000153d9  ti_sysbios_knl_Task_Instance_init__E                            
000154b9  hexbyteStrtoASCII                                               
00015599  UARTMSP432_readPolling                                          
00015675  UDMAMSP432_close                                                
0001582d  GetCmd                                                          
00015905  _SlDeviceHandleAsync_InitComplete                               
000159dd  _SlDrvWaitForInternalAsyncEvent                                 
00015ab5  _SlNetAppHandleAsync_NetAppReceive                              
00015b8d  printRecvUsage                                                  
00015c61  _SlDrvDriverCBDeinit                                            
00015e01  _SlNetAppMDNSRegisterUnregisterService                          
00015ed1  sl_NetAppGetServiceList                                         
00015fa1  ti_sysbios_heaps_HeapMem_alloc__E                               
00016071  mDNScreateServiceName                                           
00016141  cmdDeleteFilterCallback                                         
0001620d  cmdDisableFilterCallback                                        
000162d9  cmdEnableFilterCallback                                         
000163a5  UARTMSP432_hwiIntFxn                                            
00016471  ParseCmd                                                        
00016535  ClockP_stop                                                     
00016539  ti_sysbios_knl_Task_sleep__E                                    
000165fd  macAddressParse                                                 
000166bd  sl_NetCfgGet                                                    
0001677d  CheckSubFrameType                                               
00016839  _SlNetAppSendResponse                                           
000168f5  printSendUsage                                                  
000169b1  sl_Send                                                         
00016a6d  sl_WlanProvisioning                                             
00016b29  _SlNetAppHandleAsync_DnsGetHostByName                           
00016be1  _SlNetAppHandleAsync_PingResponse                               
00016e09  showAvailableCmd                                                
00016ec1  sl_DeviceGet                                                    
00016f79  sl_WlanGet                                                      
00017031  ti_sysbios_family_arm_m3_Hwi_Instance_init__E                   
000170e9  PrintIPAddress                                                  
0001719d  UARTMSP432_control                                              
00017251  UARTMSP432_writePolling                                         
00017305  _SlDrvHandleFatalError                                          
000173b9  _SlNetUtilHandleAsync_Cmd                                       
0001746d  radioTool_Open                                                  
00017521  spi_Read                                                        
000175d5  spi_Write                                                       
0001773b  SPI_initMaster                                                  
000177ed  printWlanConnectUsage                                           
0001789d  printWlanStartApUsage                                           
0001794d  sl_WlanRxStatGet                                                
000179fd  GPIO_init                                                       
00017aa9  _SlSocketHandleAsync_Close                                      
00017b55  _SlSocketHandleAsync_Connect                                    
00017c01  sendConnectionReq                                               
00017cad  HwiP_clearInterrupt                                             
00017cb1  xdc_runtime_Core_createObject__I                                
00017d5d  cmdAPTransitionDisablecallback                                  
00017e09  cmdTriggeredRoamingDisablecallback                              
00017eb3  UARTMSP432_write                                                
00017f5d  printmDNSAdvertiseUsage                                         
000180ad  HwiP_disable                                                    
000180b1  ti_sysbios_family_arm_msp432_Timer_periodicStub__E              
00018159  Report                                                          
000181ff  _SlDrvIsTimeoutExpired                                          
000182a5  printAddProfileUsage                                            
00018349  printSetPolicyUsage                                             
000183ed  sl_Bind                                                         
00018491  sl_NetAppGet                                                    
00018535  HwiP_disableInterrupt                                           
00018539  ti_sysbios_knl_Task_setPri__E                                   
000185dd  cmdAPTransitionEnablecallback                                   
00018681  cmdWlanDisconnectCallback                                       
00018725  _SlSpawnMsgListProcess                                          
000187c5  __TI_auto_init                                                  
00018905  Power_init                                                      
000189a1  __aeabi_memcpy                                                  
000189a1  __aeabi_memcpy4                                                 
000189a1  __aeabi_memcpy8                                                 
000189a1  memcpy                                                          
00018a3d  printPingUsage                                                  
00018ad5  cmdSoftRoamingDisablecallback                                   
00018b6d  ipv4AddressParse                                                
00018c03  __aeabi_uldivmod                                                
00018c99  Semaphore_pend_handle                                           
00018d2d  UDMAMSP432_init                                                 
00018dc1  UDMAMSP432_open                                                 
00018e55  HwiP_enableInterrupt                                            
00018e59  _pthread_removeThreadKeys                                       
00018eed  sl_WlanGetExtNetworkList                                        
00018f81  sl_WlanGetNetworkList                                           
00019015  SPIMSP432DMA_init                                               
00019019  ti_sysbios_family_arm_m3_Hwi_initNVIC__E                        
000190ad  SemaphoreP_post                                                 
000190b1  ti_sysbios_knl_Task_exit__E                                     
00019145  UARTMSP432_close                                                
00019269  _SlDeviceHandleAsync_Stop                                       
000192f9  _SlSocketHandleAsync_Accept                                     
00019389  printmDNSQueryUsage                                             
00019419  radioTool_RxStart                                               
000194a9  sl_WlanRxFilterAdd                                              
00019539  ti_sysbios_knl_Task_Module_startup__E                           
000195c9  _SlDrvDriverIsApiAllowed                                        
00019655  _SlDrvProtectAsyncRespSetting                                   
000196e1  printEnableWoWLANUsage                                          
000197f9  sl_Recv                                                         
00019885  sl_WlanRxStatStart                                              
00019911  sl_WlanRxStatStop                                               
0001999d  ti_sysbios_family_arm_m3_TaskSupport_buildTaskStack             
00019a29  xdc_runtime_Memory_alloc__E                                     
00019ab5  __aeabi_cdcmpeq                                                 
00019ab5  __aeabi_cdcmple                                                 
00019b3b  __aeabi_cdrcmple                                                
00019c49  xdc_runtime_Core_constructObject__I                             
00019cd1  PCM_gotoLPM3                                                    
00019d55  printScanUsage                                                  
00019e5d  sem_wait_timeout                                                
00019ee1  sl_NetAppSet                                                    
00019f65  sl_NetCfgSet                                                    
00019fe9  sl_SetSockOpt                                                   
0001a06d  sl_WlanSet                                                      
0001a0f1  ti_sysbios_family_arm_m3_Hwi_postInit__I                        
0001a175  ti_sysbios_BIOS_RtsGateProxy_enter__E                           
0001a179  ti_sysbios_heaps_HeapMem_free__E                                
0001a1fd  sl_DeviceSet                                                    
0001a27d  ti_sysbios_BIOS_RtsGateProxy_leave__E                           
0001a281  ti_sysbios_knl_Clock_workFunc__E                                
0001a301  FreeConnectCmd                                                  
0001a381  _pthread_abstime2ticks                                          
0001a3fd  sl_WlanPolicySet                                                
0001a479  __aeabi_memclr                                                  
0001a479  __aeabi_memclr4                                                 
0001a479  __aeabi_memclr8                                                 
0001a47b  __aeabi_memset                                                  
0001a47b  __aeabi_memset4                                                 
0001a47b  __aeabi_memset8                                                 
0001a481  memset                                                          
0001a4f5  radioTool_TxStop                                                
0001a56d  sl_Socket                                                       
0001a5e5  printCountrycodeeUsage                                          
0001a659  printSoftRoamingEnableUsage                                     
0001a6cd  printTriggeredRoamingEnableUsage                                
0001a741  UARTMSP432_writeCancel                                          
0001a7b1  _SlDrvCmdSend_noLock                                            
0001a821  showCCAThreshHoldMenu                                           
0001a891  showRxMenu                                                      
0001a901  ti_sysbios_heaps_HeapMem_initPrimary__I                         
0001a9df  __aeabi_ldivmod                                                 
0001aa4d  NwpRegisterInterruptHandler                                     
0001aab9  _SlDeviceHandleResetRequestInternally                           
0001ab25  _SlNetAppSendTokenValue                                         
0001ab91  ti_sysbios_family_arm_msp432_Seconds_get__E                     
0001ab91  ti_sysbios_hal_Seconds_SecondsProxy_get__E                      
0001ab91  ti_sysbios_hal_Seconds_get__E                                   
0001abfd  ti_sysbios_family_arm_m3_Hwi_delete                             
0001ac01  ti_sysbios_knl_Swi_restoreHwi__E                                
0001ac6d  FreeProfileCmd                                                  
0001acd9  GPIO_hwiIntFxn                                                  
0001ad41  PowerMSP432_getFreqs                                            
0001ada9  _SlSpawnMsgListGetCount                                         
0001ae11  __TI_decompress_lzss                                            
0001ae79  main                                                            
0001aee1  printAntSelectionEnableUsage                                    
0001af49  printCoexEnableUsage                                            
0001afb1  printGetProfileUsage                                            
0001b019  printP2PStartUsage                                              
0001b081  printP2PStopUsage                                               
0001b0e9  xdc_runtime_Core_deleteObject__I                                
0001b14f  SPIMSP432DMA_close                                              
0001b1b3  SPIMSP432DMA_control                                            
0001b21d  frexp                                                           
0001b21d  frexpl                                                          
0001b281  pthread_cancel                                                  
0001b2e5  ti_sysbios_family_arm_m3_TaskSupport_Module__startupDone__S     
0001b2e5  ti_sysbios_knl_Task_SupportProxy_Module__startupDone__S         
0001b2e9  pthread_exit                                                    
0001b34d  ti_sysbios_heaps_HeapMem_Module_GateProxy_enter__E              
0001b351  pthread_join                                                    
0001b3b5  ti_sysbios_heaps_HeapMem_Module_GateProxy_leave__E              
0001b3b9  ti_sysbios_family_arm_m3_Hwi_dispatchC__I                       
0001b41d  GPIO_setCallback                                                
0001b47d  spi_Open                                                        
0001b4dd  ti_sysbios_knl_Clock_TimerProxy_getMaxTicks__E                  
0001b4e1  ti_sysbios_knl_Semaphore_post__E                                
0001b541  ti_sysbios_knl_Swi_run__I                                       
0001b5a1  PCM_getCoreVoltageLevel                                         
0001b601  InitTerm                                                        
0001b65d  _SlInternalSpawn                                                
0001b6b9  printAPTransitionDisableUsage                                   
0001b715  printAPTransitionEnableUsage                                    
0001b771  printAntSelectionDisableUsage                                   
0001b7cd  printCoexDisableUsage                                           
0001b829  printConnectedStationsUsage                                     
0001b885  printSoftRoamingDisableUsage                                    
0001b8e1  printTriggeredRoamingDisableUsage                               
0001b93d  printWlanDisconnectUsage                                        
0001b999  printWlanStopApUsage                                            
0001b9f5  showPreambleMenu                                                
0001ba51  ti_sysbios_knl_Swi_schedule__I                                  
0001baad  ti_sysbios_knl_Clock_delete                                     
0001bab1  ti_sysbios_knl_Task_startCore__E                                
0001bb0d  ti_sysbios_knl_Semaphore_delete                                 
0001bb11  xdc_runtime_Startup_exec__E                                     
0001bb6d  PCM_getPowerMode                                                
0001bbc9  GPIO_write                                                      
0001bc79  _c_int00                                                        
0001bcd1  printDeleteFilterUsage                                          
0001bd29  printDisableFilterUsage                                         
0001bd81  printEnableFilterUsage                                          
0001be31  sl_Listen                                                       
0001bee1  ti_sysbios_family_arm_m3_Hwi_initStacks__E                      
0001bf91  PCM_shutdownDevice                                              
0001bfe5  __TI_ltoa                                                       
0001c039  printTranceiverModeUsage                                        
0001c08d  sl_NetAppMDNSRegisterService                                    
0001c0e1  ti_sysbios_family_arm_m3_Hwi_create                             
0001c135  ti_sysbios_knl_Task_delete                                      
0001c139  ti_sysbios_family_arm_msp432_Timer_initDevice__I                
0001c1e1  ClockP_create                                                   
0001c281  _SlDrvCmdSend_noWait                                            
0001c321  _SlInternalSpawnTaskEntry                                       
0001c371  _SlNetAppHttpServerHdlr                                         
0001c3c1  _SlNetAppRequestHdlr                                            
0001c411  printHelpUsage                                                  
0001c461  ti_sysbios_family_arm_m3_Hwi_Module_startup__E                  
0001c4b1  ti_sysbios_knl_Task_create                                      
0001c501  isChannelAt                                                     
0001c551  PowerMSP432_sleepPolicy                                         
0001c59d  atoi                                                            
0001c5e9  atol                                                            
0001c635  copy_in                                                         
0001c6cd  sl_NetAppMDNSUnRegisterService                                  
0001c719  sl_WlanProfileDel                                               
0001c765  sl_WlanSetMode                                                  
0001c7b1  ti_sysbios_family_arm_msp432_Timer_postInit__I                  
0001c7fd  xdc_runtime_System_Module_GateProxy_enter__E                    
0001c801  ti_sysbios_family_arm_msp432_Timer_start__E                     
0001c84d  xdc_runtime_System_Module_GateProxy_leave__E                    
0001c851  ti_sysbios_heaps_HeapMem_getStats__E                            
0001c8a1  ti_sysbios_knl_Swi_runLoop__I                                   
0001c8f1  ti_sysbios_knl_Task_allBlockedFunction__I                       
0001c941  ti_sysbios_knl_Task_schedule__I                                 
0001c98d  Power_releaseConstraint                                         
0001c9d5  _SlDeviceFatalErrorEvtHdlr                                      
0001ca1d  _SlDeviceGeneralEvtHdlr                                         
0001ca65  _SlDrvBasicCmd                                                  
0001caad  _SlDrvSyncObjWaitTimeout                                        
0001caf5  _SlNetAppEvtHdlr                                                
0001cb3d  _SlNetAppRequestMemFree                                         
0001cb85  _SlSockEvtHdlr                                                  
0001cbcd  _SlWlanEvtHdlr                                                  
0001cc19  pthread_mutex_init                                              
0001cc61  __aeabi_d2iz                                                    
0001cca9  ti_sysbios_family_arm_m3_Hwi_disableInterrupt__E                
0001cca9  ti_sysbios_hal_Hwi_HwiProxy_disableInterrupt__E                 
0001cca9  ti_sysbios_hal_Hwi_disableInterrupt__E                          
0001ccf1  ti_sysbios_family_arm_m3_Hwi_enableInterrupt__E                 
0001ccf1  ti_sysbios_hal_Hwi_HwiProxy_enableInterrupt__E                  
0001ccf1  ti_sysbios_hal_Hwi_enableInterrupt__E                           
0001cd39  ti_sysbios_knl_Mailbox_Module_startup__E                        
0001cd81  xdc_runtime_Core_assignParams__I                                
0001cdc9  RingBuf_put                                                     
0001ce11  SimpleLinkGeneralEventHandler                                   
0001ce59  SPI_init                                                        
0001ce9d  UART_init                                                       
0001cee1  _SlDrvRxIrqHandler                                              
0001cf25  printClearUsage                                                 
0001cf69  sl_NetAppStart                                                  
0001cfad  sl_NetAppStop                                                   
0001cff1  ti_sysbios_family_arm_m3_Hwi_getStackInfo__E                    
0001cff1  ti_sysbios_hal_Hwi_HwiProxy_getStackInfo__E                     
0001cff1  ti_sysbios_hal_Hwi_getStackInfo__E                              
0001d039  ti_sysbios_knl_Swi_post__E                                      
0001d07d  sl_Htonl                                                        
0001d101  HwiP_create                                                     
0001d141  RingBuf_get                                                     
0001d181  SPI_open                                                        
0001d1c1  UARTMSP432_read                                                 
0001d201  UART_open                                                       
0001d241  _SlFindAndReleasePendingCmd                                     
0001d281  _SlInternalSpawnWaitForEvent                                    
0001d2c1  _SlIsEventRegistered                                            
0001d381  pthread_mutex_unlock                                            
0001d3c1  strtok                                                          
0001d401  ti_sysbios_family_arm_msp432_Timer_Module_startup__E            
0001d441  ti_sysbios_family_arm_msp432_Timer_startup__E                   
0001d441  ti_sysbios_knl_Clock_TimerProxy_startup__E                      
0001d481  ti_sysbios_heaps_HeapMem_Instance_init__E                       
0001d4c1  ti_sysbios_knl_Clock_Instance_init__E                           
0001d501  vsnprintf                                                       
0001d5bd  realloc                                                         
0001d601  sem_timedwait                                                   
0001d641  SemaphoreP_create                                               
0001d6b9  clock_settime                                                   
0001d6f5  gpioButtonFxn1                                                  
0001d731  radioTool_Close                                                 
0001d76d  sl_Htons                                                        
0001d7a9  sleep                                                           
0001d7e9  ti_sysbios_family_arm_m3_Hwi_Instance_finalize__E               
0001d829  ti_sysbios_family_arm_msp432_Seconds_Module_startup__E          
0001d865  ti_sysbios_knl_Clock_create                                     
0001d8a1  ti_sysbios_knl_Swi_restore__E                                   
0001d8e1  usleep                                                          
0001d91d  Power_setConstraint                                             
0001d991  xdc_runtime_System_atexit__E                                    
0001d9c9  UARTMSP432_readCancel                                           
0001d9ff  strncpy                                                         
0001da35  GPIO_clearInt                                                   
0001da69  GPIO_disableInt                                                 
0001da9d  GPIO_enableInt                                                  
0001dad1  strstr                                                          
0001db05  ti_sysbios_knl_Semaphore_create                                 
0001db39  radioTool_GetStats                                              
0001db71  ti_sysbios_hal_Hwi_initStack                                    
0001dba5  HostIrqGPIO_callback                                            
0001dbd5  _SlDrvGlobalObjUnLock                                           
0001dc95  printBorder                                                     
0001dcc5  ti_sysbios_BIOS_atExitFunc__I                                   
0001dcf5  ti_sysbios_BIOS_startFunc__I                                    
0001dd29  ti_sysbios_family_arm_m3_TaskSupport_start__E                   
0001dd29  ti_sysbios_knl_Task_SupportProxy_start__E                       
0001dd59  ti_sysbios_gates_GateHwi_Object__create__S                      
0001dd89  ti_sysbios_gates_GateMutex_Object__create__S                    
0001ddb9  ti_sysbios_gates_GateMutex_enter__E                             
0001dde9  ti_sysbios_heaps_HeapMem_Object__create__S                      
0001de19  ti_sysbios_knl_Mailbox_postInit__I                              
0001de49  ti_sysbios_knl_Semaphore_construct                              
0001de79  ti_sysbios_knl_Semaphore_pendTimeout__I                         
0001dea9  ti_sysbios_knl_Task_processVitalTaskFlag__I                     
0001ded9  ti_sysbios_knl_Task_restore__E                                  
0001df09  ti_sysbios_knl_Task_unblockI__E                                 
0001df39  xdc_runtime_System_processAtExit__E                             
0001df69  FreeStartApCmd                                                  
0001df97  FreemDNSAdvertiseCmd                                            
0001dfc5  Mutex_create_handle                                             
0001dff9  pthread_setcancelstate                                          
0001e027  __aeabi_i2d                                                     
0001e055  malloc                                                          
0001e083  PowerMSP432_updateFreqs                                         
0001e0b1  RTC_C_holdClock                                                 
0001e0dd  SemaphoreP_createBinary                                         
0001e109  _SlDrvSyncObjWaitForever                                        
0001e139  _pthread_cleanupFxn                                             
0001e1c5  radioTool_RxStop                                                
0001e1f1  ti_sysbios_gates_GateHwi_Handle__label__S                       
0001e1f1  xdc_runtime_Main_Module_GateProxy_Handle__label__S              
0001e1f1  xdc_runtime_System_Module_GateProxy_Handle__label__S            
0001e21d  ti_sysbios_BIOS_RtsGateProxy_Handle__label__S                   
0001e21d  ti_sysbios_gates_GateMutex_Handle__label__S                     
0001e21d  ti_sysbios_heaps_HeapMem_Module_GateProxy_Handle__label__S      
0001e249  ti_sysbios_heaps_HeapMem_Handle__label__S                       
0001e249  xdc_runtime_Memory_HeapProxy_Handle__label__S                   
0001e275  ti_sysbios_knl_Clock_doTick__I                                  
0001e2a1  ti_sysbios_knl_Queue_construct                                  
0001e2cd  calloc                                                          
0001e321  sem_init                                                        
0001e34b  strspn                                                          
0001e375  PCM_gotoLPM0                                                    
0001e39d  Power_registerNotify                                            
0001e3c5  SPI_getInterruptStatus                                          
0001e3ed  _SlFlowContSet                                                  
0001e48d  ti_sysbios_family_arm_m3_Hwi_excHandlerAsm__I                   
0001e4b9  ti_sysbios_knl_Clock_addI__E                                    
0001e4e1  ti_sysbios_knl_Swi_Module_startup__E                            
0001e509  List_put                                                        
0001e52f  List_remove                                                     
0001e555  ti_sysbios_family_arm_m3_Hwi_pendSV__I                          
0001e579  ti_sysbios_family_arm_m3_Hwi_return                             
0001e57d  WDT_A_holdTimer                                                 
0001e5a1  _SlDrvIsApiInProgress                                           
0001e5c5  _SlDrvStartMeasureTimeout                                       
0001e5e9  pthread_attr_init                                               
0001e60d  sl_WlanDisconnect                                               
0001e631  strcspn                                                         
0001e655  ti_sysbios_BIOS_registerRTSLock__I                              
0001e679  ti_sysbios_BIOS_removeRTSLock__I                                
0001e6a1  ti_sysbios_family_arm_msp432_ClockFreqs_setFrequency__E         
0001e6c5  ti_sysbios_gates_GateMutex_Object__delete__S                    
0001e6e9  ti_sysbios_knl_Clock_Module_startup__E                          
0001e70d  ti_sysbios_knl_Clock_Object__delete__S                          
0001e731  ti_sysbios_knl_Clock_start__E                                   
0001e759  ti_sysbios_knl_Semaphore_Instance_init__E                       
0001e77d  ti_sysbios_knl_Semaphore_Object__delete__S                      
0001e7a1  ti_sysbios_knl_Task_restoreHwi__E                               
0001e7c9  xdc_runtime_Error_policyMin__E                                  
0001e7ed  CS_setExternalClockSourceFrequency                              
0001e80d  Power_unregisterNotify                                          
0001e82d  RingBuf_peek                                                    
0001e84d  showPowMenu                                                     
0001e86d  ti_sysbios_BIOS_rtsLock__I                                      
0001e88d  ti_sysbios_family_arm_m3_Hwi_Object__delete__S                  
0001e8b1  ti_sysbios_family_arm_m3_Hwi_clearInterrupt__E                  
0001e8b1  ti_sysbios_hal_Hwi_HwiProxy_clearInterrupt__E                   
0001e8b1  ti_sysbios_hal_Hwi_clearInterrupt__E                            
0001e8d1  ti_sysbios_gates_GateHwi_Object__delete__S                      
0001e8f1  ti_sysbios_heaps_HeapMem_Object__delete__S                      
0001e911  ti_sysbios_knl_Idle_run__E                                      
0001e931  ti_sysbios_knl_Semaphore_destruct                               
0001e951  ti_sysbios_knl_Task_Object__delete__S                           
0001e971  strcat                                                          
0001e98f  ti_sysbios_family_xxx_Hwi_switchAndRunFunc                      
0001e9ad  Message                                                         
0001e9c9  NwpPowerOff                                                     
0001e9e5  NwpPowerOn                                                      
0001ea01  WiFi_init                                                       
0001ea39  _SlInternalIsItSpawnThread                                      
0001ea71  memccpy                                                         
0001ea91  ti_sysbios_family_arm_m3_Hwi_excHandler__I                      
0001eab1  ti_sysbios_gates_GateMutex_Instance_init__E                     
0001ead1  ti_sysbios_knl_Clock_Instance_finalize__E                       
0001eaed  ti_sysbios_knl_Queue_destruct                                   
0001eb09  ti_sysbios_knl_Queue_put__E                                     
0001eb29  ti_sysbios_knl_Task_enter__I                                    
0001eb49  ti_sysbios_rts_ti_ReentSupport_getReent__E                      
0001eb49  ti_sysbios_rts_ti_ReentSupport_getReent__F                      
0001eb69  xdc_runtime_Memory_valloc__E                                    
0001eb89  xdc_runtime_System_abort__E                                     
0001eba5  FreePingCmd                                                     
0001ebbf  FreeRecvCmd                                                     
0001ebd9  FreeSendCmd                                                     
0001ebf3  copysign                                                        
0001ebf3  copysignl                                                       
0001ec0d  free                                                            
0001ec29  ti_sysbios_family_arm_msp432_init_Boot_init__I                  
0001ec29  xdc_runtime_Startup_reset__I                                    
0001ec41  EUSCI_A_SPI_getInterruptStatus                                  
0001ec59  EUSCI_B_SPI_getInterruptStatus                                  
0001ec71  SysCtl_A_disableNMISource                                       
0001ec89  SysCtl_A_enableNMISource                                        
0001eca1  UART_Params_init                                                
0001ecb9  _SlDrvProtectionObjLockWaitForever                              
0001ecd1  _SlDrvProtectionObjUnLock                                       
0001ece9  _args_main                                                      
0001ed19  getch                                                           
0001ed31  putch                                                           
0001ed49  strcmp                                                          
0001ed61  ti_sysbios_BIOS_rtsUnlock__I                                    
0001ed79  ti_sysbios_family_arm_m3_Hwi_Module__startupDone__F             
0001ed79  ti_sysbios_family_arm_m3_Hwi_Module__startupDone__S             
0001ed79  ti_sysbios_hal_Hwi_HwiProxy_Module__startupDone__S              
0001ed91  ti_sysbios_family_arm_m3_TaskSupport_swap__E                    
0001ed91  ti_sysbios_knl_Task_SupportProxy_swap__E                        
0001ed9d  ti_sysbios_knl_Task_swapReturn                                  
0001eda9  ti_sysbios_family_arm_msp432_Timer_Module__startupDone__F       
0001eda9  ti_sysbios_family_arm_msp432_Timer_Module__startupDone__S       
0001eda9  ti_sysbios_knl_Clock_TimerProxy_Module__startupDone__S          
0001edc1  ti_sysbios_gates_GateMutex_leave__E                             
0001edd9  ti_sysbios_knl_Task_sleepTimeout__I                             
0001edf1  ti_sysbios_rts_ti_ReentSupport_getTlsAddr__I                    
0001ee09  xdc_runtime_Error_init__E                                       
0001ee21  xdc_runtime_System_exit__E                                      
0001ee39  _SlDrvMemZero                                                   
0001ee51  pthread_mutex_destroy                                           
0001ee67  strchr                                                          
0001ee7d  ti_sysbios_BIOS_exitFunc__I                                     
0001ee99  ti_sysbios_knl_Task_unblock__E                                  
0001eeb1  ClockP_usleep                                                   
0001eec5  PCM_getPowerState                                               
0001eed9  Power_idleFunc                                                  
0001eeed  SPI_Params_init                                                 
0001ef19  pthread_attr_setschedparam                                      
0001ef2d  strcpy                                                          
0001ef41  strlen                                                          
0001ef55  ti_sysbios_family_arm_m3_Hwi_Object__get__S                     
0001ef69  ti_sysbios_family_arm_m3_Hwi_switchFromBootStack__E             
0001ef69  ti_sysbios_hal_Hwi_HwiProxy_switchFromBootStack__E              
0001ef69  ti_sysbios_hal_Hwi_switchFromBootStack__E                       
0001ef7d  ti_sysbios_heaps_HeapMem_Object__get__S                         
0001ef91  ti_sysbios_knl_Swi_Object__get__S                               
0001efa5  ClearTerm                                                       
0001efb7  RingBuf_construct                                               
0001efc9  SemaphoreP_pend                                                 
0001efe1  _pthread_cleanup_pop                                            
0001f011  ti_sysbios_family_arm_msp432_Seconds_getTime__E                 
0001f011  ti_sysbios_hal_Seconds_SecondsProxy_getTime__E                  
0001f011  ti_sysbios_hal_Seconds_getTime__E                               
0001f029  ti_sysbios_hal_Hwi_Module_startup__E                            
0001f03b  wcslen                                                          
0001f04d  xdc_runtime_Startup_exec__I                                     
0001f05f  HwiP_Params_init                                                
0001f06f  PCM_gotoLPM4                                                    
0001f07f  PCM_setPowerMode                                                
0001f08f  PCM_setPowerState                                               
0001f0a1  PowerMSP432_getNumPerfLevels                                    
0001f0b1  Power_disablePolicy                                             
0001f0c1  Power_enablePolicy                                              
0001f0d1  SysCtl_A_getNMISourceStatus                                     
0001f0e1  SysCtl_getNMISourceStatus                                       
0001f0f1  _SlDrvDispatchHttpServerEvents                                  
0001f101  _SlDrvDispatchNetAppRequestEvents                               
0001f111  _SlDrvIsSpawnOwnGlobalLock                                      
0001f121  pthread_mutexattr_init                                          
0001f131  pthread_mutexattr_settype                                       
0001f151  ti_sysbios_BIOS_exit__E                                         
0001f161  ti_sysbios_BIOS_setCpuFreq__E                                   
0001f171  ti_sysbios_BIOS_setThreadType__E                                
0001f181  ti_sysbios_BIOS_start__E                                        
0001f191  ti_sysbios_family_arm_m3_TaskSupport_glue                       
0001f1a1  ti_sysbios_family_arm_msp432_init_Boot_disableWatchdog          
0001f1b1  ti_sysbios_gates_GateMutex_Instance_finalize__E                 
0001f1c1  ti_sysbios_knl_Mailbox_Object__get__S                           
0001f1d1  ti_sysbios_knl_Semaphore_Instance_finalize__E                   
0001f1e1  ti_sysbios_knl_Swi_disable__E                                   
0001f1f1  ti_sysbios_knl_Task_Object__get__S                              
0001f201  ti_sysbios_knl_Task_disable__E                                  
0001f211  xdc_runtime_Gate_leaveSystem__E                                 
0001f221  xdc_runtime_Memory_free__E                                      
0001f231  xdc_runtime_SysCallback_abort__E                                
0001f231  xdc_runtime_System_SupportProxy_abort__E                        
0001f241  xdc_runtime_SysCallback_exit__E                                 
0001f241  xdc_runtime_System_SupportProxy_exit__E                         
0001f251  _SlDrvObjLockWaitForever                                        
0001f25f  _SlDrvObjUnLock                                                 
0001f26d  _SlDrvResetCmdExt                                               
0001f27b  _SlDrvSyncObjSignal                                             
0001f289  __TI_decompress_none                                            
0001f299  pthread_attr_setdetachstate                                     
0001f2a9  sem_wait                                                        
0001f2b7  spi_Close                                                       
0001f2c9  ti_sysbios_knl_Idle_loop__E                                     
0001f2d9  ti_sysbios_knl_Queue_empty__E                                   
0001f2e7  Board_init                                                      
0001f2f3  CPU_cpsid                                                       
0001f2ff  CPU_cpsie                                                       
0001f30b  ClockP_delete                                                   
0001f319  ClockP_getSystemTickPeriod                                      
0001f325  HwiP_delete                                                     
0001f331  Power_getConstraintMask                                         
0001f33d  Power_getPerformanceLevel                                       
0001f349  SemaphoreP_delete                                               
0001f355  SimpleLinkHttpServerEventHandler                                
0001f361  SimpleLinkNetAppRequestEventHandler                             
0001f36d  _SlDeviceResetRequestInitCompletedCB                            
0001f379  _register_lock                                                  
0001f385  _register_unlock                                                
0001f391  cmdClearcallback                                                
0001f39d  __TI_zero_init                                                  
0001f3a9  pthread_self                                                    
0001f3b5  ti_sysbios_family_arm_m3_Hwi_Params__init__S                    
0001f3b5  ti_sysbios_hal_Hwi_HwiProxy_Params__init__S                     
0001f3c1  ti_sysbios_family_arm_m3_Hwi_disableFxn__E                      
0001f3c1  ti_sysbios_hal_Hwi_HwiProxy_disable__E                          
0001f3d1  ti_sysbios_family_arm_m3_TaskSupport_getStackAlignment__E       
0001f3d1  ti_sysbios_knl_Task_SupportProxy_getStackAlignment__E           
0001f3e1  ti_sysbios_family_arm_msp432_Seconds_setTime__E                 
0001f3e1  ti_sysbios_hal_Seconds_SecondsProxy_setTime__E                  
0001f3e1  ti_sysbios_hal_Seconds_setTime__E                               
0001f3f1  ti_sysbios_family_arm_msp432_Timer_getMaxTicks__E               
0001f401  ti_sysbios_gates_GateHwi_enter__E                               
0001f40d  ti_sysbios_knl_Clock_Params__init__S                            
0001f419  ClockP_getSystemTicks                                           
0001f419  ti_sysbios_knl_Clock_getTicks__E                                
0001f425  ti_sysbios_knl_Queue_Object__get__S                             
0001f431  ti_sysbios_knl_Semaphore_Params__init__S                        
0001f43d  ti_sysbios_knl_Task_Params__init__S                             
0001f449  ti_sysbios_knl_Task_self__E                                     
0001f459  ti_sysbios_rts_ti_ReentSupport_taskRegHook__I                   
0001f469  xdc_runtime_Gate_enterSystem__E                                 
0001f479  xdc_runtime_Startup_rtsDone__E                                  
0001f485  ClockP_Params_init                                              
0001f48f  SPI_close                                                       
0001f499  SPI_transfer                                                    
0001f4a3  SimpleLinkNetAppRequestMemFreeEventHandler                      
0001f4ad  SimpleLinkSockEventHandler                                      
0001f4b7  UART_control                                                    
0001f4c1  UART_readPolling                                                
0001f4cb  UART_writePolling                                               
0001f4d9  sem_destroy                                                     
0001f4e9  sem_post                                                        
0001f4f3  sl_Task                                                         
0001f4fd  xdc_runtime_Memory_HeapProxy_alloc__E                           
0001f507  xdc_runtime_Memory_HeapProxy_free__E                            
0001f511  SemaphoreP_Params_init                                          
0001f519  TimerGetCurrentTimestamp                                        
0001f529  pthread_attr_setstacksize                                       
0001f531  pthread_mutex_lock                                              
0001f541  sem_getvalue                                                    
0001f549  ti_sysbios_family_arm_m3_Hwi_doSwiRestore__I                    
0001f551  ti_sysbios_family_arm_m3_Hwi_startup__E                         
0001f551  ti_sysbios_hal_Hwi_HwiProxy_startup__E                          
0001f551  ti_sysbios_hal_Hwi_startup__E                                   
0001f569  ti_sysbios_family_arm_m3_Hwi_doTaskRestore__I                   
0001f571  HwiP_restore                                                    
0001f571  ti_sysbios_family_arm_m3_Hwi_restoreFxn__E                      
0001f571  ti_sysbios_hal_Hwi_HwiProxy_restore__E                          
0001f579  ti_sysbios_gates_GateHwi_leave__E                               
0001f581  ti_sysbios_heaps_HeapMem_isBlocking__E                          
0001f589  ti_sysbios_knl_Clock_stop__E                                    
0001f591  ti_sysbios_knl_Queue_Instance_init__E                           
0001f599  ti_sysbios_knl_Swi_startup__E                                   
0001f5a1  xdc_runtime_System_Module_startup__E                            
0001f5a9  __aeabi_errno_addr                                              
0001f5b1  ti_sysbios_gates_GateHwi_query__E                               
0001f5b1  xdc_runtime_Main_Module_GateProxy_query__E                      
0001f5b1  xdc_runtime_System_Module_GateProxy_query__E                    
0001f5b9  ti_sysbios_BIOS_RtsGateProxy_query__E                           
0001f5b9  ti_sysbios_gates_GateMutex_query__E                             
0001f5b9  ti_sysbios_heaps_HeapMem_Module_GateProxy_query__E              
0001f5c1  ti_sysbios_knl_Clock_setTimeout__E                              
0001f5c9  ti_sysbios_knl_Task_startup__E                                  
0001f5d1  ti_sysbios_BIOS_linkedWithIncorrectBootLibrary__E               
0001f5d9  ti_sysbios_gates_GateHwi_Instance_init__E                       
0001f5e1  ti_sysbios_knl_Clock_logTick__E                                 
0001f5e9  xdc_runtime_SysCallback_defaultAbort                            
0001f5f1  xdc_runtime_SysCallback_defaultExit                             
0001f5f9  xdc_runtime_System_abortSpin__E                                 
0001f601  xdc_runtime_System_exitSpin__E                                  
000221f0  _ctypes_                                                        
000222f1  xdc_runtime_Error_policy__C                                     
000222f2  OpcodeTranslateTable                                            
00022362  ti_sysbios_family_arm_m3_Hwi_Module__id__C                      
000223c4  _SlActionLookupTable                                            
000224a0  ti_sysbios_knl_Task_Object__PARAMS__C                           
000224dc  PowerMSP432_config                                              
00022514  SimpleLinkWifiCC32XX_config                                     
00022548  ti_sysbios_family_arm_m3_Hwi_Object__PARAMS__C                  
000225a4  UARTMSP432_fxnTable                                             
000225cc  ti_sysbios_heaps_HeapMem_Module__FXNS__C                        
000225f4  UART_defaultParams                                              
00022618  spiMSP432DMAHWAttrs                                             
0002263c  ti_sysbios_gates_GateHwi_Module__FXNS__C                        
00022660  ti_sysbios_gates_GateMutex_Module__FXNS__C                      
00022684  ti_sysbios_heaps_HeapMem_Object__PARAMS__C                      
000226a8  ti_sysbios_knl_Clock_Object__PARAMS__C                          
000226cc  ti_sysbios_knl_Semaphore_Object__PARAMS__C                      
000226f0  xdc_runtime_Startup_sfxnTab__A                                  
00022734  SPI_defaultParams                                               
00022794  ti_sysbios_family_arm_m3_Hwi_Object__DESC__C                    
000227b4  ti_sysbios_gates_GateHwi_Object__DESC__C                        
000227d4  ti_sysbios_gates_GateMutex_Object__DESC__C                      
000227f4  ti_sysbios_heaps_HeapMem_Object__DESC__C                        
00022814  ti_sysbios_knl_Clock_Object__DESC__C                            
00022834  ti_sysbios_knl_Queue_Object__DESC__C                            
00022854  ti_sysbios_knl_Semaphore_Object__DESC__C                        
00022874  ti_sysbios_knl_Task_Object__DESC__C                             
00022894  SPIMSP432DMA_fxnTable                                           
000228ac  ti_sysbios_gates_GateHwi_Object__PARAMS__C                      
000228c4  ti_sysbios_gates_GateMutex_Object__PARAMS__C                    
000228dc  ti_sysbios_knl_Queue_Object__PARAMS__C                          
000228f4  ti_sysbios_knl_Task_hooks__A                                    
000229d4  GPIOMSP432_config                                               
000229e8  xdc_runtime_Startup_sfxnRts__A                                  
000229fa  ti_sysbios_family_arm_msp432_init_Boot_bypassHFXT__C            
00022a0c  SPI_config                                                      
00022a18  UART_config                                                     
00022a24  ti_sysbios_family_arm_msp432_Seconds_daysPerMonthLeap__A        
00022a30  ti_sysbios_family_arm_msp432_Seconds_daysPerMonthNonLeap__A     
00022a3c  udmaMSP432HWAttrs                                               
00022a48  wifiSimplelinkHWAttrs                                           
00022a54  xdc_runtime_Startup_firstFxns__A                                
00022a70  UDMAMSP432_config                                               
00022a90  ti_sysbios_knl_Idle_funcList__A                                 
00022a98  ti_sysbios_knl_Idle_funcList__C                                 
00022aa0  ti_sysbios_knl_Task_hooks__C                                    
00022aa8  xdc_runtime_Startup_firstFxns__C                                
00022ab0  xdc_runtime_Startup_lastFxns__C                                 
00022ac4  Display_count                                                   
00022ac5  SPI_count                                                       
00022ac6  Timer_count                                                     
00022ac7  UART_count                                                      
00022ac8  Button_count                                                    
00022ac9  WiFi_count                                                      
00022af0  WiFi_config                                                     
00022b14  _SlNetAppSendResponseCmdCtrl                                    
00022b18  _SlNetAppSendTokenValueCmdCtrl                                  
00022b3c  _SlProvisioningCmdCtrl                                          
00022b80  ti_sysbios_family_arm_m3_Hwi_E_alreadyDefined__C                
00022b84  ti_sysbios_family_arm_m3_Hwi_E_badIntNum__C                     
00022b88  ti_sysbios_family_arm_m3_Hwi_NUM_INTERRUPTS__C                  
00022b8c  ti_sysbios_family_arm_m3_Hwi_Object__count__C                   
00022b90  ti_sysbios_family_arm_m3_Hwi_ccr__C                             
00022b94  ti_sysbios_family_arm_m3_Hwi_excHandlerFunc__C                  
00022b98  ti_sysbios_family_arm_m3_Hwi_nullIsrFunc__C                     
00022b9c  ti_sysbios_family_arm_m3_Hwi_priGroup__C                        
00022ba0  ti_sysbios_family_arm_m3_Hwi_swiDisable__C                      
00022ba4  ti_sysbios_family_arm_m3_Hwi_swiRestore__C                      
00022ba8  ti_sysbios_family_arm_m3_TaskSupport_stackAlignment__C          
00022bac  ti_sysbios_family_arm_msp432_Seconds_daysPerMonthLeap__C        
00022bb0  ti_sysbios_family_arm_msp432_Seconds_daysPerMonthNonLeap__C     
00022bb4  ti_sysbios_family_arm_msp432_Timer_numTimerDevices__C           
00022bb8  ti_sysbios_family_arm_msp432_Timer_startupNeeded__C             
00022bbc  ti_sysbios_gates_GateMutex_Instance_State_sem__O                
00022bc0  ti_sysbios_heaps_HeapMem_E_memory__C                            
00022bc4  ti_sysbios_heaps_HeapMem_Module__gateObj__C                     
00022bc8  ti_sysbios_heaps_HeapMem_Object__count__C                       
00022bcc  ti_sysbios_heaps_HeapMem_primaryHeapBaseAddr__C                 
00022bd0  ti_sysbios_heaps_HeapMem_primaryHeapEndAddr__C                  
00022bd4  ti_sysbios_heaps_HeapMem_reqAlign__C                            
00022bd8  ti_sysbios_knl_Clock_Module_State_clockQ__O                     
00022bdc  ti_sysbios_knl_Clock_tickPeriod__C                              
00022be0  ti_sysbios_knl_Mailbox_Instance_State_freeQue__O                
00022be4  ti_sysbios_knl_Mailbox_Object__count__C                         
00022be8  ti_sysbios_knl_Mailbox_maxTypeAlign__C                          
00022bec  ti_sysbios_knl_Semaphore_Instance_State_pendQ__O                
00022bf0  ti_sysbios_knl_Swi_Object__count__C                             
00022bf4  ti_sysbios_knl_Task_Module_State_inactiveQ__O                   
00022bf8  ti_sysbios_knl_Task_Object__count__C                            
00022bfc  ti_sysbios_knl_Task_Object__heap__C                             
00022c00  ti_sysbios_knl_Task_allBlockedFunc__C                           
00022c04  ti_sysbios_knl_Task_defaultStackHeap__C                         
00022c08  ti_sysbios_knl_Task_defaultStackSize__C                         
00022c0c  ti_sysbios_knl_Task_numConstructedTasks__C                      
00022c10  xdc_runtime_Error_E_memory__C                                   
00022c14  xdc_runtime_Error_policyFxn__C                                  
00022c18  xdc_runtime_IGateProvider_Interface__BASE__C                    
00022c1c  xdc_runtime_IHeap_Interface__BASE__C                            
00022c20  xdc_runtime_IModule_Interface__BASE__C                          
00022c24  xdc_runtime_Memory_defaultHeapInstance__C                       
00022c28  xdc_runtime_Startup_execImpl__C                                 
00022c2c  xdc_runtime_Startup_maxPasses__C                                
00022c30  xdc_runtime_Startup_sfxnRts__C                                  
00022c34  xdc_runtime_Startup_sfxnTab__C                                  
00022c38  xdc_runtime_SysCallback_abortFxn__C                             
00022c3c  xdc_runtime_SysCallback_exitFxn__C                              
00022c40  xdc_runtime_System_Module__gateObj__C                           
00022c44  xdc_runtime_System_abortFxn__C                                  
00022c48  xdc_runtime_System_exitFxn__C                                   
00022c4c  xdc_runtime_System_maxAtexitHandlers__C                         
00022c50  ti_sysbios_family_arm_msp432_init_Boot_bypassLFXT__C            
00022c52  ti_sysbios_family_arm_msp432_init_Boot_enableHFXT__C            
00022c54  ti_sysbios_family_arm_msp432_init_Boot_enableLFXT__C            
00022c56  ti_sysbios_heaps_HeapMem_Module__id__C                          
00022c58  xdc_runtime_Memory_Module__id__C                                
00022c60  __TI_static_base__                                              
000239a8  __TI_Handler_Table_Base                                         
000239b4  __TI_Handler_Table_Limit                                        
000239c0  __TI_CINIT_Base                                                 
000239d0  __TI_CINIT_Limit                                                
20000000  __start___llvm_prf_cnts                                         
20000000  __stop___llvm_prf_cnts                                          
20000000  ti_sysbios_family_arm_m3_Hwi_ramVectors                         
20000140  __primary_heap_start__                                          
20008140  __primary_heap_end__                                            
20008200  app_CB                                                          
20008a9c  Rx_frame                                                        
20009078  Tx_frame                                                        
20009654  g_CB                                                            
20009a50  ti_sysbios_knl_Task_Instance_State_0_stack__A                   
20009c50  ti_sysbios_family_arm_m3_Hwi_dispatchTable                      
20009d90  spiMSP432DMAObjects                                             
20009dd8  g_SlInternalSpawnCB                                             
20009f00  uartMSP432Objects                                               
20009fb0  GlobalLockObj                                                   
2000a04c  DeviceCB                                                        
2000a058  Msg                                                             
2000a078  ClockP_tickPeriod                                               
2000a07c  ti_sysbios_knl_Task_Instance_State_0_hookEnv__A                 
2000a080  radioTool_rawSocketdesc                                         
2000a082  RxIrqCnt                                                        
2000a083  udmaMSP432Object                                                
2000a084  descriptionStr                                                  
2000a088  helpDetailsStr                                                  
2000a08c  help_optaionDetails                                             
2000a090  clearDetailsStr                                                 
2000a094  scanDetailsStr                                                  
2000a098  scan_n_optionDetailsStr                                         
2000a09c  scan_ext_optionDetailsStr                                       
2000a0a0  scan_Note_optionDetailsStr                                      
2000a0a4  setPolicyDetailsStr                                             
2000a0a8  setPolicy_i_optionDetailsStr                                    
2000a0ac  setPolicy_h_optionDetailsStr                                    
2000a0b0  setPolicy_c_optionDetailsStr                                    
2000a0b4  setPolicy_d_optionDetailsStr                                    
2000a0b8  setPolicy_r_optionDetailsStr                                    
2000a0bc  setPolicy_o_optionDetailsStr                                    
2000a0c0  wlanConnectDetailsStr                                           
2000a0c4  wlanConnect_s_optionDetailsStr                                  
2000a0c8  wlanConnect_t_optionDetailsStr                                  
2000a0cc  wlanConnect_p_optionDetailsStr                                  
2000a0d0  wlanConnect_ip_optionDetailsStr                                 
2000a0d4  wlanConnect_gw_optionDetailsStr                                 
2000a0d8  wlanConnect_dns_optionDetailsStr                                
2000a0dc  wlanConnect_ent_optionDetailStr                                 
2000a0e0  ap_start_DetailsStr                                             
2000a0e4  ap_stop_DetailsStr                                              
2000a0e8  ap_start_h_optionDetailsStr                                     
2000a0ec  ap_start_txp_optionDetailsStr                                   
2000a0f0  ap_start_channel_optionDetailsStr                               
2000a0f4  ap_start_l_optionDetailsStr                                     
2000a0f8  wlanDisConnectDetailsStr                                        
2000a0fc  ConnectedStationsDetailsStr                                     
2000a100  pingDetailsStr                                                  
2000a104  ping_h_optionDetailsStr                                         
2000a108  ping_c_optionDetailsStr                                         
2000a10c  ping_i_optionDetailsStr                                         
2000a110  ping_s_optionDetailsStr                                         
2000a114  ping_t_optionDetailsStr                                         
2000a118  sendDetailsStr                                                  
2000a11c  recvUsage1Str                                                   
2000a120  recvUsage2Str                                                   
2000a124  recvDetailsStr                                                  
2000a128  recv_c_optionDetailsStr                                         
2000a12c  recv_s_optionDetailsStr                                         
2000a130  recv_u_optionDetailsStr                                         
2000a134  recv_p_optionDetailsStr                                         
2000a138  recv_nb_optionDetailsStr                                        
2000a13c  recv_6_optionDetailsStr                                         
2000a140  creteFilterDetailsStr                                           
2000a144  createFilter_f_optionDetailsStr                                 
2000a148  createFilter_v_optionDetailsStr                                 
2000a14c  createFilter_e_optionDetailsStr                                 
2000a150  createFilter_a_optionDetailsStr                                 
2000a154  createFilter_m_optionDetailsStr                                 
2000a158  createFilter_o_optionDetailsStr                                 
2000a15c  createFilter_i_optionDetailsStr                                 
2000a160  enableFilterDetailsStr                                          
2000a164  disableFilterDetailsStr                                         
2000a168  deleteFilterDetailsStr                                          
2000a16c  enableWoWLANDetailsStr                                          
2000a170  enableWoWLAN_v_optionDetailsStr                                 
2000a174  enableWoWLAN_u_optionDetailsStr                                 
2000a178  enableWoWLAN_i_optionDetailsStr                                 
2000a17c  enableWoWLAN_Note_optionDetailsStr                              
2000a180  mDNSAdvertiseDetailsStr                                         
2000a184  mDNSAdvertise_n_optionDetailsStr                                
2000a188  mDNSAdvertise_so_optionDetailsStr                               
2000a18c  mDNSAdvertise_st_optionDetailsStr                               
2000a190  mDNSAdvertise_ttl_optionDetailsStr                              
2000a194  mDNSAdvertise_t_optionDetailsStr                                
2000a198  mDNSAdvertise_p_optionDetailsStr                                
2000a19c  mDNSdQueryDetailsStr                                            
2000a1a0  mDNSdQuery_n_optionDetailsStr                                   
2000a1a4  mDNSdQuery_st_optionDetailsStr                                  
2000a1a8  mDNSdQuery_so_optionDetailsStr                                  
2000a1ac  mDNSdQuery_o_optionDetailsStr                                   
2000a1b0  TxtaskDetailsStr                                                
2000a1b4  Txtask_tx_optionDetailsStr                                      
2000a1b8  Txtask_tx1_optionDetailsStr                                     
2000a1bc  Txtask_tx2_optionDetailsStr                                     
2000a1c0  Txtask_tx3_optionDetailsStr                                     
2000a1c4  Txtask_t_optionDetailsStr                                       
2000a1c8  Txtask_c_optionDetailsStr                                       
2000a1cc  Txtask_m_optionDetailsStr                                       
2000a1d0  Txtask_m1_optionDetailsStr                                      
2000a1d4  Txtask_m2_optionDetailsStr                                      
2000a1d8  Txtask_m3_optionDetailsStr                                      
2000a1dc  Txtask_m4_optionDetailsStr                                      
2000a1e0  Txtask_m5_optionDetailsStr                                      
2000a1e4  Txtask_m6_optionDetailsStr                                      
2000a1e8  Txtask_m7_optionDetailsStr                                      
2000a1ec  Txtask_m8_optionDetailsStr                                      
2000a1f0  Txtask_m9_optionDetailsStr                                      
2000a1f4  Txtask_m10_optionDetailsStr                                     
2000a1f8  Txtask_m11_optionDetailsStr                                     
2000a1fc  Txtask_m12_optionDetailsStr                                     
2000a200  Txtask_m13_optionDetailsStr                                     
2000a204  Txtask_m14_optionDetailsStr                                     
2000a208  Txtask_m15_optionDetailsStr                                     
2000a20c  Txtask_m16_optionDetailsStr                                     
2000a210  Txtask_m17_optionDetailsStr                                     
2000a214  Txtask_m18_optionDetailsStr                                     
2000a218  Txtask_m19_optionDetailsStr                                     
2000a21c  Txtask_m20_optionDetailsStr                                     
2000a220  Txtask_m21_optionDetailsStr                                     
2000a224  Txtask_txp_optionDetailsStr                                     
2000a228  Txtask_txp0_optionDetailsStr                                    
2000a22c  Txtask_p_optionDetailsStr                                       
2000a230  Txtask_p0_optionDetailsStr                                      
2000a234  Txtask_p1_optionDetailsStr                                      
2000a238  Txtask_p2_optionDetailsStr                                      
2000a23c  Txtask_p3_optionDetailsStr                                      
2000a240  Txtask_p4_optionDetailsStr                                      
2000a244  Txtask_tone_optionDetailsStr                                    
2000a248  Txtask_d_optionDetailsStr                                       
2000a24c  Txtask_dp_optionDetailsStr                                      
2000a250  Txtask_dp0_optionDetailsStr                                     
2000a254  Txtask_dp1_optionDetailsStr                                     
2000a258  Txtask_dp2_optionDetailsStr                                     
2000a25c  Txtask_dp3_optionDetailsStr                                     
2000a260  Txtask_cca_optionDetailsStr                                     
2000a264  Txtask_s_optionDetailsStr                                       
2000a268  Txtask_a_optionDetailsStr                                       
2000a26c  cca_th_optionDetailStr                                          
2000a270  cca_th1_optionDetailStr                                         
2000a274  cca_th2_optionDetailStr                                         
2000a278  cca_th3_optionDetailStr                                         
2000a27c  cca_th4_optionDetailStr                                         
2000a280  cca_th5_optionDetailStr                                         
2000a284  cca_th6_optionDetailStr                                         
2000a288  RxtaskDetailsStr                                                
2000a28c  Rxtask_c_optionDetailsStr                                       
2000a290  Rxtask_d_optionDetailsStr                                       
2000a294  Rxtask_s_optionDetailsStr                                       
2000a298  p2pStartDetailsStr                                              
2000a29c  p2pStopDetailsStr                                               
2000a2a0  SoftRoamingEnableDetailsStr                                     
2000a2a4  SoftRoamingEnable_r_optionDetailsStr                            
2000a2a8  SoftRoamingEnable_Note_optionDetailsStr                         
2000a2ac  SoftRoamingDisableDetailsStr                                    
2000a2b0  AntSelectionEnableDetailsStr                                    
2000a2b4  AntSelectionEnable_Note_optionDetailsStr                        
2000a2b8  AntSelectionDisableDetailsStr                                   
2000a2bc  CoexEnableDetailsStr                                            
2000a2c0  CoexEnable_Note_optionDetailsStr                                
2000a2c4  CoexDisableDetailsStr                                           
2000a2c8  CountryCodeDetailsStr                                           
2000a2cc  CountryCode_g_optionDetailsStr                                  
2000a2d0  CountryCode_Note_optionDetailsStr                               
2000a2d4  wlanAddProfileDetailsStr                                        
2000a2d8  wlanProfile_mac_optionDetailsStr                                
2000a2dc  wlanProfile_pr_optionDetailsStr                                 
2000a2e0  wlanGetProfileDetailsStr                                        
2000a2e4  wlanProfile_i_optionDetailsStr                                  
2000a2e8  TriggeredRoamingEnableDetailsStr                                
2000a2ec  TriggeredRoaming_r_optionDetailsStr                             
2000a2f0  TriggeredRoamingDisableDetailsStr                               
2000a2f4  APTransitionEnableDetailsStr                                    
2000a2f8  APTransitionDisableDetailsStr                                   
2000a2fc  gCmdList                                                        
2000a4a0  PowerMSP432_perfLevels                                          
2000a5e0  ap_start_UsageStr                                               
2000a6c0  wlanConnectUsageStr                                             
2000a757  createFilterUsageStr                                            
2000a7e4  addProfileUsageStr                                              
2000a86d  V_optionStr                                                     
2000a8f8  mDNSAdvertiseUsageStr                                           
2000a97f  setPolicyUsageStr                                               
2000aa04  ti_sysbios_knl_Swi_Module_State_0_readyQ__A                     
2000aa84  ti_sysbios_knl_Task_Module_State_0_readyQ__A                    
2000ab04  send_c_optionDetailsStr                                         
2000ab7e  pingUsageStr                                                    
2000abee  recv_Note_optionDetailsStr                                      
2000ac4c  sendUsage1Str                                                   
2000aca9  mDNSdQueryUsageStr                                              
2000ad00  ti_sysbios_gates_GateMutex_Object__table__V                     
2000ad54  sendUsage2Str                                                   
2000ada2  space_str                                                       
2000ada4  ti_sysbios_knl_Task_Object__table__V                            
2000adf0  enableWoWLANUsageStr                                            
2000ae38  ti_sysbios_family_arm_msp432_Timer_Object__table__V             
2000ae7c  ti_sysbios_knl_Task_Module__state__V                            
2000aec0  DataFrames_str                                                  
2000af00  radiotoolDetailsStr                                             
2000af3c  send_p_optionDetailsStr                                         
2000af77  send_nb_optionDetailsStr                                        
2000afb0  send_n_optionDetailsStr                                         
2000afe8  send_n_r_optionDetailsStr                                       
2000b020  ti_sysbios_family_arm_m3_Hwi_Module__state__V                   
2000b054  MangmentFrames_str                                              
2000b084  ti_sysbios_knl_Swi_Object__table__V                             
2000b0b4  scanUsageStr                                                    
2000b0e1  a_optionStr                                                     
2000b0e4  PowerMSP432_module                                              
2000b110  ti_sysbios_knl_Clock_Module__state__V                           
2000b13c  SetCountryCodeUsageStr                                          
2000b160  g_LibsEvents                                                    
2000b184  g_UserEvents                                                    
2000b1a8  ti_sysbios_BIOS_Module__state__V                                
2000b1cc  send_6_optionDetailsStr                                         
2000b1ee  TriggeredRoamingEnableUsageStr                                  
2000b210  CtrlFrames_str                                                  
2000b230  gpioCallbackFunctions                                           
2000b250  gpioPinConfigs                                                  
2000b270  send_u_optionDetailsStr                                         
2000b290  ti_sysbios_family_arm_msp432_Timer_Module_State_0_device__A     
2000b2b0  xdc_runtime_Error_IgnoreBlock                                   
2000b2d0  SoftRoamingEnableUsageStr                                       
2000b2ee  ti_sysbios_family_arm_m3_Hwi_Module_State_0_excActive__A        
2000b2f0  ti_sysbios_knl_Swi_Module__state__V                             
2000b30c  getProfileUsageStr                                              
2000b327  send_s_optionDetailsStr                                         
2000b342  Template_Hdr                                                    
2000b35c  ti_sysbios_family_arm_m3_Hwi_Object__table__V                   
2000b374  ti_sysbios_heaps_HeapMem_Object__table__V                       
2000b38c  APTransitionDisablecmdStr                                       
2000b3a0  AntSelectionDisablecmdStr                                       
2000b3b4  APTransitionEnablecmdStr                                        
2000b3c7  AntSelectionEnablecmdStr                                        
2000b3da  ConnectedStationsStr                                            
2000b3ed  SoftRoamingDisablecmdStr                                        
2000b400  TriggeredRoamingDisablecmdStr                                   
2000b413  helpUsageStr                                                    
2000b426  SoftRoamingEnablecmdStr                                         
2000b438  TriggeredRoamingEnablecmdStr                                    
2000b44a  radiotool_PromptStr                                             
2000b45c  DataFrames                                                      
2000b47c  _tz                                                             
2000b49c  ti_sysbios_family_arm_msp432_Timer_Module_State_0_handles__A    
2000b4ac  wlanDisconnectStr                                               
2000b4bb  FRAME_SUBTYPE_str                                               
2000b4c9  ap_start_str                                                    
2000b4d7  disableFilterStr                                                
2000b4e5  mDNSAdvertiseStr                                                
2000b4f3  ap_stop_str                                                     
2000b500  createFilterStr                                                 
2000b50d  deleteFilterStr                                                 
2000b51a  enableFilterStr                                                 
2000b527  enableWoWLANStr                                                 
2000b534  AntSelectionEnableUsageStr                                      
2000b540  CoexDisablecmdStr                                               
2000b54c  CoexEnableUsageStr                                              
2000b558  ConnectedStationsUsageStr                                       
2000b564  MgmtFrames                                                      
2000b570  SetCountryCodeStr                                               
2000b57c  ap_stop_UsageStr                                                
2000b588  gGlobalLockCntRequested                                         
2000b589  gGlobalLockCntReleased                                          
2000b58a  g_SlDeviceStatus                                                
2000b58c  g_pCB                                                           
2000b590  pPingCallBackFunc                                               
2000b594  ti_sysbios_family_arm_msp432_ClockFreqs_Module__state__V        
2000b5a0  ti_sysbios_family_arm_msp432_Timer_Module__state__V             
2000b5ac  wlanConnectStr                                                  
2000b5b8  wlanDisconnectUsageStr                                          
2000b5c4  AddProfileStr                                                   
2000b5cf  CoexEnablecmdStr                                                
2000b5da  FRAME_TYPE_str                                                  
2000b5e5  GetProfileStr                                                   
2000b5f0  usageStr                                                        
2000b5fb  APTransitionDisableUsageStr                                     
2000b605  APTransitionEnableUsageStr                                      
2000b60f  AntSelectionDisableUsageStr                                     
2000b619  CoexDisableUsageStr                                             
2000b623  SoftRoamingDisableUsageStr                                      
2000b62d  TriggeredRoamingDisableUsageStr                                 
2000b637  WPA2_PLUS_str                                                   
2000b641  mDNSQueryStr                                                    
2000b64b  radiotool_Str                                                   
2000b655  setPolicyStr                                                    
2000b65f  WPAWPA2_str                                                     
2000b668  p2pStartcmdStr                                                  
2000b671  c_optionStr                                                     
2000b674  _lock                                                           
2000b678  _unlock                                                         
2000b67c  CtrlFrames                                                      
2000b684  PATTERN_str                                                     
2000b68c  gMaxCmd                                                         
2000b690  gSpawn_thread                                                   
2000b694  p2pStopcmdStr                                                   
2000b69c  g_SpiFd                                                         
2000b6a0  g_Host_irq_Hndlr                                                
2000b6a4  ti_sysbios_family_arm_m3_Hwi_Module__root__V                    
2000b6ac  ti_sysbios_gates_GateHwi_Module__root__V                        
2000b6b4  ti_sysbios_gates_GateMutex_Module__root__V                      
2000b6bc  ti_sysbios_heaps_HeapMem_Module__root__V                        
2000b6c4  ti_sysbios_knl_Clock_Module__root__V                            
2000b6cc  ti_sysbios_knl_Queue_Module__root__V                            
2000b6d4  ti_sysbios_knl_Semaphore_Module__root__V                        
2000b6dc  ti_sysbios_knl_Task_Module__root__V                             
2000b6e4  xdc_runtime_Startup_Module__state__V                            
2000b6ec  xdc_runtime_System_Module_State_0_atexitHandlers__A             
2000b6f4  xdc_runtime_System_Module__state__V                             
2000b6fc  BSSID_str                                                       
2000b702  DESTINATION_MAC_str                                             
2000b708  SOURCE_MAC_str                                                  
2000b70e  clearStr                                                        
2000b714  cmdPromptStr                                                    
2000b71a  help_optionStr                                                  
2000b720  D_IP_str                                                        
2000b725  OPEN_str                                                        
2000b72a  S_IP_str                                                        
2000b72f  WPA2_str                                                        
2000b734  WPA3_str                                                        
2000b739  dns_optionStr                                                   
2000b73e  ent_optionStr                                                   
2000b743  helpStr                                                         
2000b748  mac_optionStr                                                   
2000b74d  pingStr                                                         
2000b752  recvStr                                                         
2000b757  scanStr                                                         
2000b75c  sendStr                                                         
2000b761  ttl_optionStr                                                   
2000b766  txpow_optionStr                                                 
2000b76b  WEP_str                                                         
2000b76f  WPA_str                                                         
2000b773  WPS_str                                                         
2000b777  ext_optionStr                                                   
2000b77b  gw_optionStr                                                    
2000b77f  ip_optionStr                                                    
2000b783  nb_optionStr                                                    
2000b787  priority_optionStr                                              
2000b78c  main_func_sp                                                    
2000b794  so_optionStr                                                    
2000b798  st_optionStr                                                    
2000b79c  ti_sysbios_family_arm_m3_Hwi_Module_State_0_excContext__A       
2000b7a0  ti_sysbios_family_arm_m3_Hwi_Module_State_0_excStack__A         
2000b7a4  ti_sysbios_gates_GateHwi_Object__table__V                       
2000b7a8  ti_sysbios_knl_Task_Module_State_0_idleTask__A                  
2000b7ac  ti_sysbios_rts_ti_ReentSupport_Module__state__V                 
2000b7b0  xdc_runtime_Memory_Module__state__V                             
2000b7b4  d_optionStr                                                     
2000b7b7  e_optionStr                                                     
2000b7ba  f_optionStr                                                     
2000b7bd  g_optionStr                                                     
2000b7c0  h_optionStr                                                     
2000b7c3  i_optionStr                                                     
2000b7c6  l_optionStr                                                     
2000b7c9  lineBreak                                                       
2000b7cc  m_optionStr                                                     
2000b7cf  n_optionStr                                                     
2000b7d2  o_optionStr                                                     
2000b7d5  p_optionStr                                                     
2000b7d8  r_optionStr                                                     
2000b7db  s_optionStr                                                     
2000b7de  t_optionStr                                                     
2000b7e1  u_optionStr                                                     
2000b7e4  v_optionStr                                                     
2000fc00  __stack                                                         
20010000  __STACK_END                                                     
4000480c  WDTCTL_SYM                                                      
e000e000  ti_sysbios_family_arm_m3_Hwi_nvic                               
ffffffff  __TI_pprof_out_hndl                                             
ffffffff  __TI_prof_data_size                                             
ffffffff  __TI_prof_data_start                                            
ffffffff  __binit__                                                       
ffffffff  __c_args__                                                      
ffffffff  binit                                                           
UNDEFED   SHT$$INIT_ARRAY$$Base                                           
UNDEFED   SHT$$INIT_ARRAY$$Limit                                          

[1261 symbols]
